(lp0
(lp1
Vred
p2
aV\u0420\u0443\u043c\u044f\u043d\u0446\u0435\u0432\u043e
p3
aa(lp4
Vred
p5
aV\u0420\u0443\u043c\u044f\u043d\u0446\u0435\u0432\u043e
p6
aa(lp7
Vred
p8
aV\u0420\u0443\u043c\u044f\u043d\u0446\u0435\u0432\u043e
p9
aa(lp10
Vred
p11
aV\u0420\u0443\u043c\u044f\u043d\u0446\u0435\u0432\u043e
p12
aa(lp13
Vred
p14
aV\u0421\u0430\u043b\u0430\u0440\u044c\u0435\u0432\u043e
p15
aa(lp16
Vred
p17
aV\u0421\u0430\u043b\u0430\u0440\u044c\u0435\u0432\u043e
p18
aa(lp19
Vorange
p20
aV\u042f\u0441\u0435\u043d\u0435\u0432\u043e
p21
aa(lp22
Vorange
p23
aV\u042f\u0441\u0435\u043d\u0435\u0432\u043e
p24
aa(lp25
Vorange
p26
aV\u042f\u0441\u0435\u043d\u0435\u0432\u043e
p27
aa(lp28
Vorange
p29
aV\u041d\u043e\u0432\u043e\u044f\u0441\u0435\u043d\u0435\u0432\u0441\u043a\u0430\u044f
p30
aa(lp31
Vorange
p32
aV\u0422\u0451\u043f\u043b\u044b\u0439 \u0421\u0442\u0430\u043d
p33
aa(lp34
Vorange
p35
aV\u0422\u0451\u043f\u043b\u044b\u0439 \u0421\u0442\u0430\u043d
p36
aa(lp37
Vorange
p38
aV\u0422\u0451\u043f\u043b\u044b\u0439 \u0421\u0442\u0430\u043d
p39
aa(lp40
Vorange
p41
aV\u0422\u0451\u043f\u043b\u044b\u0439 \u0421\u0442\u0430\u043d
p42
aa(lp43
Vorange
p44
aV\u0422\u0451\u043f\u043b\u044b\u0439 \u0421\u0442\u0430\u043d
p45
aa(lp46
Vorange
p47
aV\u0422\u0451\u043f\u043b\u044b\u0439 \u0421\u0442\u0430\u043d
p48
aa(lp49
Vorange
p50
aV\u0422\u0451\u043f\u043b\u044b\u0439 \u0421\u0442\u0430\u043d
p51
aa(lp52
Vorange
p53
aV\u0422\u0451\u043f\u043b\u044b\u0439 \u0421\u0442\u0430\u043d
p54
aa(lp55
Vorange
p56
aV\u0422\u0451\u043f\u043b\u044b\u0439 \u0421\u0442\u0430\u043d
p57
aa(lp58
Vorange
p59
aV\u041a\u043e\u043d\u044c\u043a\u043e\u0432\u043e
p60
aa(lp61
Vorange
p62
aV\u041a\u043e\u043d\u044c\u043a\u043e\u0432\u043e
p63
aa(lp64
Vorange
p65
aV\u041a\u043e\u043d\u044c\u043a\u043e\u0432\u043e
p66
aa(lp67
Vorange
p68
aV\u041a\u043e\u043d\u044c\u043a\u043e\u0432\u043e
p69
aa(lp70
Vorange
p71
aV\u041a\u043e\u043d\u044c\u043a\u043e\u0432\u043e
p72
aa(lp73
Vorange
p74
aV\u041a\u043e\u043d\u044c\u043a\u043e\u0432\u043e
p75
aa(lp76
Vorange
p77
aV\u041a\u043e\u043d\u044c\u043a\u043e\u0432\u043e
p78
aa(lp79
Vorange
p80
aV\u041a\u043e\u043d\u044c\u043a\u043e\u0432\u043e
p81
aa(lp82
Vorange
p83
aV\u042f\u0441\u0435\u043d\u0435\u0432\u043e
p84
aa(lp85
Vorange
p86
aV\u042f\u0441\u0435\u043d\u0435\u0432\u043e
p87
aa(lp88
Vorange
p89
aV\u041d\u043e\u0432\u043e\u044f\u0441\u0435\u043d\u0435\u0432\u0441\u043a\u0430\u044f
p90
aa(lp91
Vorange
p92
aV\u042f\u0441\u0435\u043d\u0435\u0432\u043e
p93
aa(lp94
Vorange
p95
aV\u042f\u0441\u0435\u043d\u0435\u0432\u043e
p96
aa(lp97
Vorange
p98
aV\u042f\u0441\u0435\u043d\u0435\u0432\u043e
p99
aa(lp100
Vorange
p101
aV\u041a\u043e\u043d\u044c\u043a\u043e\u0432\u043e
p102
aa(lp103
Vorange
p104
aV\u041a\u043e\u043d\u044c\u043a\u043e\u0432\u043e
p105
aa(lp106
Vgray
p107
aV\u0427\u0435\u0440\u0442\u0430\u043d\u043e\u0432\u0441\u043a\u0430\u044f
p108
aa(lp109
Vgray
p110
aV\u042e\u0436\u043d\u0430\u044f
p111
aa(lp112
Vgray
p113
aV\u042e\u0436\u043d\u0430\u044f
p114
aa(lp115
Vgray
p116
aV\u041f\u0440\u0430\u0436\u0441\u043a\u0430\u044f
p117
aa(lp118
Vgray
p119
aV\u041f\u0440\u0430\u0436\u0441\u043a\u0430\u044f
p120
aa(lp121
Vgray
p122
aV\u041f\u0440\u0430\u0436\u0441\u043a\u0430\u044f
p123
aa(lp124
Vgray
p125
aV\u041f\u0440\u0430\u0436\u0441\u043a\u0430\u044f
p126
aa(lp127
Vgray
p128
aV\u0410\u043d\u043d\u0438\u043d\u043e
p129
aa(lp130
Vgray
p131
aV\u0410\u043d\u043d\u0438\u043d\u043e
p132
aa(lp133
Vgray
p134
aV\u0427\u0435\u0440\u0442\u0430\u043d\u043e\u0432\u0441\u043a\u0430\u044f
p135
aa(lp136
Vgray
p137
aV\u041f\u0440\u0430\u0436\u0441\u043a\u0430\u044f
p138
aa(lp139
Vgray
p140
aV\u041f\u0440\u0430\u0436\u0441\u043a\u0430\u044f
p141
aa(lp142
Vgray
p143
aV\u041f\u0440\u0430\u0436\u0441\u043a\u0430\u044f
p144
aa(lp145
Vgray
p146
aV\u041f\u0440\u0430\u0436\u0441\u043a\u0430\u044f
p147
aa(lp148
Vgray
p149
aV\u042e\u0436\u043d\u0430\u044f
p150
aa(lp151
Vgray
p152
aV\u0427\u0435\u0440\u0442\u0430\u043d\u043e\u0432\u0441\u043a\u0430\u044f
p153
aa(lp154
Vgray
p155
aV\u0427\u0435\u0440\u0442\u0430\u043d\u043e\u0432\u0441\u043a\u0430\u044f
p156
aa(lp157
S''
p158
aV\u0411\u0438\u0442\u0446\u0435\u0432\u0441\u043a\u0438\u0439 \u043f\u0430\u0440\u043a
p159
aa(lp160
Vgray
p161
aV\u0423\u043b\u0438\u0446\u0430 \u0410\u043a\u0430\u0434\u0435\u043c\u0438\u043a\u0430 \u042f\u043d\u0433\u0435\u043b\u044f
p162
aa(lp163
Vgray
p164
aV\u0423\u043b\u0438\u0446\u0430 \u0410\u043a\u0430\u0434\u0435\u043c\u0438\u043a\u0430 \u042f\u043d\u0433\u0435\u043b\u044f
p165
aa(lp166
Vgray
p167
aV\u0423\u043b\u0438\u0446\u0430 \u0410\u043a\u0430\u0434\u0435\u043c\u0438\u043a\u0430 \u042f\u043d\u0433\u0435\u043b\u044f
p168
aa(lp169
Vgray
p170
aV\u0423\u043b\u0438\u0446\u0430 \u0410\u043a\u0430\u0434\u0435\u043c\u0438\u043a\u0430 \u042f\u043d\u0433\u0435\u043b\u044f
p171
aa(lp172
Vgray
p173
aV\u0423\u043b\u0438\u0446\u0430 \u0410\u043a\u0430\u0434\u0435\u043c\u0438\u043a\u0430 \u042f\u043d\u0433\u0435\u043b\u044f
p174
aa(lp175
Vgray
p176
aV\u041f\u0440\u0430\u0436\u0441\u043a\u0430\u044f
p177
aa(lp178
Vgray
p179
aV\u041f\u0440\u0430\u0436\u0441\u043a\u0430\u044f
p180
aa(lp181
Vgray
p182
aV\u041f\u0440\u0430\u0436\u0441\u043a\u0430\u044f
p183
aa(lp184
Vgray
p185
aV\u041f\u0440\u0430\u0436\u0441\u043a\u0430\u044f
p186
aa(lp187
Vgray
p188
aV\u042e\u0436\u043d\u0430\u044f
p189
aa(lp190
Vgray
p191
aV\u042e\u0436\u043d\u0430\u044f
p192
aa(lp193
Vgray
p194
aV\u042e\u0436\u043d\u0430\u044f
p195
aa(lp196
Vgray
p197
aV\u042e\u0436\u043d\u0430\u044f
p198
aa(lp199
Vgray
p200
aV\u0423\u043b\u0438\u0446\u0430 \u0410\u043a\u0430\u0434\u0435\u043c\u0438\u043a\u0430 \u042f\u043d\u0433\u0435\u043b\u044f
p201
aa(lp202
Vgray
p203
aV\u0423\u043b\u0438\u0446\u0430 \u0410\u043a\u0430\u0434\u0435\u043c\u0438\u043a\u0430 \u042f\u043d\u0433\u0435\u043b\u044f
p204
aa(lp205
Vgray
p206
aV\u0410\u043d\u043d\u0438\u043d\u043e
p207
aa(lp208
Vgray
p209
aV\u0410\u043d\u043d\u0438\u043d\u043e
p210
aa(lp211
Vlightblue
p212
aV\u041b\u0435\u0441\u043e\u043f\u0430\u0440\u043a\u043e\u0432\u0430\u044f
p213
aa(lp214
g158
aV\u042e\u0436\u043d\u0430\u044f
p215
aa(lp216
Vgray
p217
aV\u0410\u043d\u043d\u0438\u043d\u043e
p218
aa(lp219
g158
aV\u0411\u0438\u0442\u0446\u0435\u0432\u0441\u043a\u0438\u0439 \u043f\u0430\u0440\u043a
p220
aa(lp221
Vdarkgreen
p222
aV\u0414\u043e\u043c\u043e\u0434\u0435\u0434\u043e\u0432\u0441\u043a\u0430\u044f
p223
aa(lp224
Vdarkgreen
p225
aV\u041a\u0430\u043d\u0442\u0435\u043c\u0438\u0440\u043e\u0432\u0441\u043a\u0430\u044f
p226
aa(lp227
Vdarkgreen
p228
aV\u041a\u0430\u043d\u0442\u0435\u043c\u0438\u0440\u043e\u0432\u0441\u043a\u0430\u044f
p229
aa(lp230
Vdarkgreen
p231
aV\u0414\u043e\u043c\u043e\u0434\u0435\u0434\u043e\u0432\u0441\u043a\u0430\u044f
p232
aa(lp233
Vdarkgreen
p234
aV\u041a\u0440\u0430\u0441\u043d\u043e\u0433\u0432\u0430\u0440\u0434\u0435\u0439\u0441\u043a\u0430\u044f
p235
aa(lp236
Vdarkgreen
p237
aV\u041a\u0440\u0430\u0441\u043d\u043e\u0433\u0432\u0430\u0440\u0434\u0435\u0439\u0441\u043a\u0430\u044f
p238
aa(lp239
Vdarkgreen
p240
aV\u041a\u0440\u0430\u0441\u043d\u043e\u0433\u0432\u0430\u0440\u0434\u0435\u0439\u0441\u043a\u0430\u044f
p241
aa(lp242
Vdarkgreen
p243
aV\u041a\u0440\u0430\u0441\u043d\u043e\u0433\u0432\u0430\u0440\u0434\u0435\u0439\u0441\u043a\u0430\u044f
p244
aa(lp245
Vdarkgreen
p246
aV\u041e\u0440\u0435\u0445\u043e\u0432\u043e
p247
aa(lp248
Vdarkgreen
p249
aV\u041e\u0440\u0435\u0445\u043e\u0432\u043e
p250
aa(lp251
Vdarkgreen
p252
aV\u041e\u0440\u0435\u0445\u043e\u0432\u043e
p253
aa(lp254
Vdarkgreen
p255
aV\u0414\u043e\u043c\u043e\u0434\u0435\u0434\u043e\u0432\u0441\u043a\u0430\u044f
p256
aa(lp257
Vdarkgreen
p258
aV\u0414\u043e\u043c\u043e\u0434\u0435\u0434\u043e\u0432\u0441\u043a\u0430\u044f
p259
aa(lp260
Vdarkgreen
p261
aV\u0414\u043e\u043c\u043e\u0434\u0435\u0434\u043e\u0432\u0441\u043a\u0430\u044f
p262
aa(lp263
Vdarkgreen
p264
aV\u0414\u043e\u043c\u043e\u0434\u0435\u0434\u043e\u0432\u0441\u043a\u0430\u044f
p265
aa(lp266
Vdarkgreen
p267
aV\u0414\u043e\u043c\u043e\u0434\u0435\u0434\u043e\u0432\u0441\u043a\u0430\u044f
p268
aa(lp269
Vdarkgreen
p270
aV\u0426\u0430\u0440\u0438\u0446\u044b\u043d\u043e
p271
aa(lp272
Vdarkgreen
p273
aV\u0426\u0430\u0440\u0438\u0446\u044b\u043d\u043e
p274
aa(lp275
Vdarkgreen
p276
aV\u0426\u0430\u0440\u0438\u0446\u044b\u043d\u043e
p277
aa(lp278
Vdarkgreen
p279
aV\u0426\u0430\u0440\u0438\u0446\u044b\u043d\u043e
p280
aa(lp281
Vdarkgreen
p282
aV\u0426\u0430\u0440\u0438\u0446\u044b\u043d\u043e
p283
aa(lp284
Vdarkgreen
p285
aV\u0426\u0430\u0440\u0438\u0446\u044b\u043d\u043e
p286
aa(lp287
Vdarkgreen
p288
aV\u041a\u0430\u043d\u0442\u0435\u043c\u0438\u0440\u043e\u0432\u0441\u043a\u0430\u044f
p289
aa(lp290
Vdarkgreen
p291
aV\u041a\u0430\u043d\u0442\u0435\u043c\u0438\u0440\u043e\u0432\u0441\u043a\u0430\u044f
p292
aa(lp293
Vdarkgreen
p294
aV\u041a\u0430\u043d\u0442\u0435\u043c\u0438\u0440\u043e\u0432\u0441\u043a\u0430\u044f
p295
aa(lp296
Vdarkgreen
p297
aV\u041a\u0430\u043d\u0442\u0435\u043c\u0438\u0440\u043e\u0432\u0441\u043a\u0430\u044f
p298
aa(lp299
Vdarkgreen
p300
aV\u0414\u043e\u043c\u043e\u0434\u0435\u0434\u043e\u0432\u0441\u043a\u0430\u044f
p301
aa(lp302
Vdarkgreen
p303
aV\u041a\u0440\u0430\u0441\u043d\u043e\u0433\u0432\u0430\u0440\u0434\u0435\u0439\u0441\u043a\u0430\u044f
p304
aa(lp305
Vdarkgreen
p306
aV\u041a\u0440\u0430\u0441\u043d\u043e\u0433\u0432\u0430\u0440\u0434\u0435\u0439\u0441\u043a\u0430\u044f
p307
aa(lp308
Vdarkgreen
p309
aV\u041a\u0440\u0430\u0441\u043d\u043e\u0433\u0432\u0430\u0440\u0434\u0435\u0439\u0441\u043a\u0430\u044f
p310
aa(lp311
Vdarkgreen
p312
aV\u041a\u0440\u0430\u0441\u043d\u043e\u0433\u0432\u0430\u0440\u0434\u0435\u0439\u0441\u043a\u0430\u044f
p313
aa(lp314
Vdarkgreen
p315
aV\u0414\u043e\u043c\u043e\u0434\u0435\u0434\u043e\u0432\u0441\u043a\u0430\u044f
p316
aa(lp317
Vdarkgreen
p318
aV\u0414\u043e\u043c\u043e\u0434\u0435\u0434\u043e\u0432\u0441\u043a\u0430\u044f
p319
aa(lp320
Vdarkgreen
p321
ag158
aa(lp322
Vlightgreen
p323
aV\u0411\u043e\u0440\u0438\u0441\u043e\u0432\u043e
p324
aa(lp325
Vlightgreen
p326
aV\u0411\u043e\u0440\u0438\u0441\u043e\u0432\u043e
p327
aa(lp328
Vlightgreen
p329
aV\u0428\u0438\u043f\u0438\u043b\u043e\u0432\u0441\u043a\u0430\u044f
p330
aa(lp331
Vlightgreen
p332
aV\u0428\u0438\u043f\u0438\u043b\u043e\u0432\u0441\u043a\u0430\u044f
p333
aa(lp334
Vlightgreen
p335
aV\u0428\u0438\u043f\u0438\u043b\u043e\u0432\u0441\u043a\u0430\u044f
p336
aa(lp337
Vlightgreen
p338
aV\u0428\u0438\u043f\u0438\u043b\u043e\u0432\u0441\u043a\u0430\u044f
p339
aa(lp340
Vlightgreen
p341
aV\u0417\u044f\u0431\u043b\u0438\u043a\u043e\u0432\u043e
p342
aa(lp343
Vlightgreen
p344
aV\u0417\u044f\u0431\u043b\u0438\u043a\u043e\u0432\u043e
p345
aa(lp346
Vlightgreen
p347
aV\u0417\u044f\u0431\u043b\u0438\u043a\u043e\u0432\u043e
p348
aa(lp349
Vdarkgreen
p350
aV\u0414\u043e\u043c\u043e\u0434\u0435\u0434\u043e\u0432\u0441\u043a\u0430\u044f
p351
aa(lp352
Vdarkgreen
p353
aV\u0414\u043e\u043c\u043e\u0434\u0435\u0434\u043e\u0432\u0441\u043a\u0430\u044f
p354
aa(lp355
Vdarkgreen
p356
aV\u0414\u043e\u043c\u043e\u0434\u0435\u0434\u043e\u0432\u0441\u043a\u0430\u044f
p357
aa(lp358
Vdarkgreen
p359
aV\u0414\u043e\u043c\u043e\u0434\u0435\u0434\u043e\u0432\u0441\u043a\u0430\u044f
p360
aa(lp361
Vlightgreen
p362
aV\u0428\u0438\u043f\u0438\u043b\u043e\u0432\u0441\u043a\u0430\u044f
p363
aa(lp364
Vdarkgreen
p365
aV\u0410\u043b\u043c\u0430-\u0410\u0442\u0438\u043d\u0441\u043a\u0430\u044f
p366
aa(lp367
Vdarkgreen
p368
aV\u0410\u043b\u043c\u0430-\u0410\u0442\u0438\u043d\u0441\u043a\u0430\u044f
p369
aa(lp370
Vred
p371
aV\u042e\u0433\u043e-\u0417\u0430\u043f\u0430\u0434\u043d\u0430\u044f
p372
aa(lp373
Vred
p374
aV\u042e\u0433\u043e-\u0417\u0430\u043f\u0430\u0434\u043d\u0430\u044f
p375
aa(lp376
Vred
p377
aV\u042e\u0433\u043e-\u0417\u0430\u043f\u0430\u0434\u043d\u0430\u044f
p378
aa(lp379
Vred
p380
aV\u042e\u0433\u043e-\u0417\u0430\u043f\u0430\u0434\u043d\u0430\u044f
p381
aa(lp382
Vred
p383
aV\u042e\u0433\u043e-\u0417\u0430\u043f\u0430\u0434\u043d\u0430\u044f
p384
aa(lp385
Vred
p386
aV\u042e\u0433\u043e-\u0417\u0430\u043f\u0430\u0434\u043d\u0430\u044f
p387
aa(lp388
Vred
p389
aV\u042e\u0433\u043e-\u0417\u0430\u043f\u0430\u0434\u043d\u0430\u044f
p390
aa(lp391
Vorange
p392
aV\u041a\u0430\u043b\u0443\u0436\u0441\u043a\u0430\u044f
p393
aa(lp394
Vorange
p395
aV\u041a\u0430\u043b\u0443\u0436\u0441\u043a\u0430\u044f
p396
aa(lp397
Vorange
p398
aV\u0411\u0435\u043b\u044f\u0435\u0432\u043e
p399
aa(lp400
Vorange
p401
aV\u0411\u0435\u043b\u044f\u0435\u0432\u043e
p402
aa(lp403
Vred
p404
aV\u0423\u043d\u0438\u0432\u0435\u0440\u0441\u0438\u0442\u0435\u0442
p405
aa(lp406
Vred
p407
aV\u0423\u043d\u0438\u0432\u0435\u0440\u0441\u0438\u0442\u0435\u0442
p408
aa(lp409
Vred
p410
aV\u0423\u043d\u0438\u0432\u0435\u0440\u0441\u0438\u0442\u0435\u0442
p411
aa(lp412
Vred
p413
aV\u0423\u043d\u0438\u0432\u0435\u0440\u0441\u0438\u0442\u0435\u0442
p414
aa(lp415
Vred
p416
aV\u041f\u0440\u043e\u0441\u043f\u0435\u043a\u0442 \u0412\u0435\u0440\u043d\u0430\u0434\u0441\u043a\u043e\u0433\u043e
p417
aa(lp418
Vred
p419
aV\u041f\u0440\u043e\u0441\u043f\u0435\u043a\u0442 \u0412\u0435\u0440\u043d\u0430\u0434\u0441\u043a\u043e\u0433\u043e
p420
aa(lp421
Vred
p422
aV\u041f\u0440\u043e\u0441\u043f\u0435\u043a\u0442 \u0412\u0435\u0440\u043d\u0430\u0434\u0441\u043a\u043e\u0433\u043e
p423
aa(lp424
Vorange
p425
aV\u0411\u0435\u043b\u044f\u0435\u0432\u043e
p426
aa(lp427
Vorange
p428
aV\u0411\u0435\u043b\u044f\u0435\u0432\u043e
p429
aa(lp430
Vorange
p431
aV\u0411\u0435\u043b\u044f\u0435\u0432\u043e
p432
aa(lp433
Vorange
p434
aV\u0411\u0435\u043b\u044f\u0435\u0432\u043e
p435
aa(lp436
Vorange
p437
aV\u0411\u0435\u043b\u044f\u0435\u0432\u043e
p438
aa(lp439
Vorange
p440
aV\u0411\u0435\u043b\u044f\u0435\u0432\u043e
p441
aa(lp442
Vorange
p443
aV\u041a\u0430\u043b\u0443\u0436\u0441\u043a\u0430\u044f
p444
aa(lp445
Vorange
p446
aV\u041a\u0430\u043b\u0443\u0436\u0441\u043a\u0430\u044f
p447
aa(lp448
Vorange
p449
aV\u041a\u0430\u043b\u0443\u0436\u0441\u043a\u0430\u044f
p450
aa(lp451
Vorange
p452
aV\u041a\u0430\u043b\u0443\u0436\u0441\u043a\u0430\u044f
p453
aa(lp454
Vorange
p455
aV\u041a\u0430\u043b\u0443\u0436\u0441\u043a\u0430\u044f
p456
aa(lp457
Vorange
p458
aV\u041a\u0430\u043b\u0443\u0436\u0441\u043a\u0430\u044f
p459
aa(lp460
Vorange
p461
aV\u041a\u0430\u043b\u0443\u0436\u0441\u043a\u0430\u044f
p462
aa(lp463
Vorange
p464
aV\u041a\u0430\u043b\u0443\u0436\u0441\u043a\u0430\u044f
p465
aa(lp466
Vred
p467
aV\u042e\u0433\u043e-\u0417\u0430\u043f\u0430\u0434\u043d\u0430\u044f
p468
aa(lp469
Vred
p470
aV\u041f\u0440\u043e\u0441\u043f\u0435\u043a\u0442 \u0412\u0435\u0440\u043d\u0430\u0434\u0441\u043a\u043e\u0433\u043e
p471
aa(lp472
Vred
p473
aV\u041f\u0440\u043e\u0441\u043f\u0435\u043a\u0442 \u0412\u0435\u0440\u043d\u0430\u0434\u0441\u043a\u043e\u0433\u043e
p474
aa(lp475
Vred
p476
aV\u041f\u0440\u043e\u0441\u043f\u0435\u043a\u0442 \u0412\u0435\u0440\u043d\u0430\u0434\u0441\u043a\u043e\u0433\u043e
p477
aa(lp478
Vred
p479
aV\u041f\u0440\u043e\u0441\u043f\u0435\u043a\u0442 \u0412\u0435\u0440\u043d\u0430\u0434\u0441\u043a\u043e\u0433\u043e
p480
aa(lp481
Vorange
p482
aV\u041d\u043e\u0432\u044b\u0435 \u0427\u0435\u0440\u0451\u043c\u0443\u0448\u043a\u0438
p483
aa(lp484
Vorange
p485
aV\u041d\u043e\u0432\u044b\u0435 \u0427\u0435\u0440\u0451\u043c\u0443\u0448\u043a\u0438
p486
aa(lp487
Vorange
p488
aV\u041d\u043e\u0432\u044b\u0435 \u0427\u0435\u0440\u0451\u043c\u0443\u0448\u043a\u0438
p489
aa(lp490
Vorange
p491
aV\u041d\u043e\u0432\u044b\u0435 \u0427\u0435\u0440\u0451\u043c\u0443\u0448\u043a\u0438
p492
aa(lp493
Vred
p494
aV\u0422\u0440\u043e\u043f\u0430\u0440\u0451\u0432\u043e
p495
aa(lp496
Vred
p497
aV\u0422\u0440\u043e\u043f\u0430\u0440\u0451\u0432\u043e
p498
aa(lp499
Vred
p500
aV\u0422\u0440\u043e\u043f\u0430\u0440\u0451\u0432\u043e
p501
aa(lp502
Vred
p503
aV\u0422\u0440\u043e\u043f\u0430\u0440\u0451\u0432\u043e
p504
aa(lp505
Vred
p506
aV\u0422\u0440\u043e\u043f\u0430\u0440\u0451\u0432\u043e
p507
aa(lp508
Vred
p509
aV\u0422\u0440\u043e\u043f\u0430\u0440\u0451\u0432\u043e
p510
aa(lp511
Vred
p512
aV\u0422\u0440\u043e\u043f\u0430\u0440\u0451\u0432\u043e
p513
aa(lp514
Vred
p515
aV\u0422\u0440\u043e\u043f\u0430\u0440\u0451\u0432\u043e
p516
aa(lp517
Vred
p518
aV\u0422\u0440\u043e\u043f\u0430\u0440\u0451\u0432\u043e
p519
aa(lp520
Vred
p521
aV\u0422\u0440\u043e\u043f\u0430\u0440\u0451\u0432\u043e
p522
aa(lp523
Vred
p524
aV\u0422\u0440\u043e\u043f\u0430\u0440\u0451\u0432\u043e
p525
aa(lp526
Vred
p527
aV\u0422\u0440\u043e\u043f\u0430\u0440\u0451\u0432\u043e
p528
aa(lp529
Vyellow
p530
aV\u041b\u043e\u043c\u043e\u043d\u043e\u0441\u043e\u0432\u0441\u043a\u0438\u0439 \u043f\u0440\u043e\u0441\u043f\u0435\u043a\u0442
p531
aa(lp532
Vyellow
p533
aV\u041b\u043e\u043c\u043e\u043d\u043e\u0441\u043e\u0432\u0441\u043a\u0438\u0439 \u043f\u0440\u043e\u0441\u043f\u0435\u043a\u0442
p534
aa(lp535
Vyellow
p536
aV\u041b\u043e\u043c\u043e\u043d\u043e\u0441\u043e\u0432\u0441\u043a\u0438\u0439 \u043f\u0440\u043e\u0441\u043f\u0435\u043a\u0442
p537
aa(lp538
Vyellow
p539
aV\u041b\u043e\u043c\u043e\u043d\u043e\u0441\u043e\u0432\u0441\u043a\u0438\u0439 \u043f\u0440\u043e\u0441\u043f\u0435\u043a\u0442
p540
aa(lp541
Vyellow
p542
aV\u041b\u043e\u043c\u043e\u043d\u043e\u0441\u043e\u0432\u0441\u043a\u0438\u0439 \u043f\u0440\u043e\u0441\u043f\u0435\u043a\u0442
p543
aa(lp544
Vyellow
p545
aV\u0420\u0430\u043c\u0435\u043d\u043a\u0438
p546
aa(lp547
Vyellow
p548
aV\u0420\u0430\u043c\u0435\u043d\u043a\u0438
p549
aa(lp550
Vyellow
p551
aV\u0420\u0430\u043c\u0435\u043d\u043a\u0438
p552
aa(lp553
Vyellow
p554
aV\u0420\u0430\u043c\u0435\u043d\u043a\u0438
p555
aa(lp556
Vyellow
p557
aV\u0420\u0430\u043c\u0435\u043d\u043a\u0438
p558
aa(lp559
Vyellow
p560
aV\u0420\u0430\u043c\u0435\u043d\u043a\u0438
p561
aa(lp562
g158
aV\u041a\u0430\u0448\u0438\u0440\u0441\u043a\u0430\u044f
p563
aa(lp564
Vgray
p565
aV\u041d\u0430\u0445\u0438\u043c\u043e\u0432\u0441\u043a\u0438\u0439 \u043f\u0440\u043e\u0441\u043f\u0435\u043a\u0442
p566
aa(lp567
Vgray
p568
aV\u041d\u0430\u0445\u0438\u043c\u043e\u0432\u0441\u043a\u0438\u0439 \u043f\u0440\u043e\u0441\u043f\u0435\u043a\u0442
p569
aa(lp570
Vgray
p571
aV\u041d\u0430\u0445\u0438\u043c\u043e\u0432\u0441\u043a\u0438\u0439 \u043f\u0440\u043e\u0441\u043f\u0435\u043a\u0442
p572
aa(lp573
Vgray
p574
aV\u041d\u0430\u0445\u0438\u043c\u043e\u0432\u0441\u043a\u0438\u0439 \u043f\u0440\u043e\u0441\u043f\u0435\u043a\u0442
p575
aa(lp576
Vorange
p577
aV\u041f\u0440\u043e\u0444\u0441\u043e\u044e\u0437\u043d\u0430\u044f
p578
aa(lp579
Vorange
p580
aV\u041f\u0440\u043e\u0444\u0441\u043e\u044e\u0437\u043d\u0430\u044f
p581
aa(lp582
Vorange
p583
aV\u041f\u0440\u043e\u0444\u0441\u043e\u044e\u0437\u043d\u0430\u044f
p584
aa(lp585
Vorange
p586
aV\u041f\u0440\u043e\u0444\u0441\u043e\u044e\u0437\u043d\u0430\u044f
p587
aa(lp588
Vorange
p589
aV\u0410\u043a\u0430\u0434\u0435\u043c\u0438\u0447\u0435\u0441\u043a\u0430\u044f
p590
aa(lp591
Vorange
p592
aV\u0410\u043a\u0430\u0434\u0435\u043c\u0438\u0447\u0435\u0441\u043a\u0430\u044f
p593
aa(lp594
Vorange
p595
aV\u0410\u043a\u0430\u0434\u0435\u043c\u0438\u0447\u0435\u0441\u043a\u0430\u044f
p596
aa(lp597
g158
aV\u0412\u0430\u0440\u0448\u0430\u0432\u0441\u043a\u0430\u044f
p598
aa(lp599
g158
aV\u0412\u0430\u0440\u0448\u0430\u0432\u0441\u043a\u0430\u044f
p600
aa(lp601
Vgray
p602
aV\u041d\u0430\u0433\u043e\u0440\u043d\u0430\u044f
p603
aa(lp604
Vgray
p605
aV\u041d\u0430\u0433\u0430\u0442\u0438\u043d\u0441\u043a\u0430\u044f
p606
aa(lp607
g158
aV\u041a\u0430\u0445\u043e\u0432\u0441\u043a\u0430\u044f
p608
aa(lp609
g158
aV\u041a\u0430\u0445\u043e\u0432\u0441\u043a\u0430\u044f
p610
aa(lp611
g158
aV\u041a\u0430\u0445\u043e\u0432\u0441\u043a\u0430\u044f
p612
aa(lp613
g158
aV\u041a\u0430\u0445\u043e\u0432\u0441\u043a\u0430\u044f
p614
aa(lp615
g158
aV\u041a\u0430\u0445\u043e\u0432\u0441\u043a\u0430\u044f
p616
aa(lp617
g158
aV\u041a\u0430\u0445\u043e\u0432\u0441\u043a\u0430\u044f
p618
aa(lp619
Vgray
p620
aV\u0427\u0435\u0440\u0442\u0430\u043d\u043e\u0432\u0441\u043a\u0430\u044f
p621
aa(lp622
Vgray
p623
aV\u0427\u0435\u0440\u0442\u0430\u043d\u043e\u0432\u0441\u043a\u0430\u044f
p624
aa(lp625
Vgray
p626
aV\u0427\u0435\u0440\u0442\u0430\u043d\u043e\u0432\u0441\u043a\u0430\u044f
p627
aa(lp628
Vgray
p629
aV\u041d\u0430\u0433\u0430\u0442\u0438\u043d\u0441\u043a\u0430\u044f
p630
aa(lp631
Vgray
p632
aV\u041d\u0430\u0433\u0430\u0442\u0438\u043d\u0441\u043a\u0430\u044f
p633
aa(lp634
Vgray
p635
aV\u041d\u0430\u0433\u0430\u0442\u0438\u043d\u0441\u043a\u0430\u044f
p636
aa(lp637
g158
aV\u0412\u0430\u0440\u0448\u0430\u0432\u0441\u043a\u0430\u044f
p638
aa(lp639
Vgray
p640
aV\u041d\u0430\u0433\u043e\u0440\u043d\u0430\u044f
p641
aa(lp642
Vgray
p643
aV\u0427\u0435\u0440\u0442\u0430\u043d\u043e\u0432\u0441\u043a\u0430\u044f
p644
aa(lp645
Vgray
p646
aV\u041d\u0430\u0445\u0438\u043c\u043e\u0432\u0441\u043a\u0438\u0439 \u043f\u0440\u043e\u0441\u043f\u0435\u043a\u0442
p647
aa(lp648
Vorange
p649
aV\u0410\u043a\u0430\u0434\u0435\u043c\u0438\u0447\u0435\u0441\u043a\u0430\u044f
p650
aa(lp651
Vorange
p652
aV\u0410\u043a\u0430\u0434\u0435\u043c\u0438\u0447\u0435\u0441\u043a\u0430\u044f
p653
aa(lp654
Vorange
p655
aV\u041d\u043e\u0432\u044b\u0435 \u0427\u0435\u0440\u0451\u043c\u0443\u0448\u043a\u0438
p656
aa(lp657
Vorange
p658
aV\u041d\u043e\u0432\u044b\u0435 \u0427\u0435\u0440\u0451\u043c\u0443\u0448\u043a\u0438
p659
aa(lp660
Vorange
p661
aV\u041d\u043e\u0432\u044b\u0435 \u0427\u0435\u0440\u0451\u043c\u0443\u0448\u043a\u0438
p662
aa(lp663
Vorange
p664
aV\u041d\u043e\u0432\u044b\u0435 \u0427\u0435\u0440\u0451\u043c\u0443\u0448\u043a\u0438
p665
aa(lp666
Vorange
p667
aV\u041f\u0440\u043e\u0444\u0441\u043e\u044e\u0437\u043d\u0430\u044f
p668
aa(lp669
Vorange
p670
aV\u041f\u0440\u043e\u0444\u0441\u043e\u044e\u0437\u043d\u0430\u044f
p671
aa(lp672
Vorange
p673
aV\u041f\u0440\u043e\u0444\u0441\u043e\u044e\u0437\u043d\u0430\u044f
p674
aa(lp675
Vorange
p676
aV\u041f\u0440\u043e\u0444\u0441\u043e\u044e\u0437\u043d\u0430\u044f
p677
aa(lp678
Vorange
p679
aV\u0410\u043a\u0430\u0434\u0435\u043c\u0438\u0447\u0435\u0441\u043a\u0430\u044f
p680
aa(lp681
Vorange
p682
aV\u0410\u043a\u0430\u0434\u0435\u043c\u0438\u0447\u0435\u0441\u043a\u0430\u044f
p683
aa(lp684
Vorange
p685
aV\u0410\u043a\u0430\u0434\u0435\u043c\u0438\u0447\u0435\u0441\u043a\u0430\u044f
p686
aa(lp687
g158
aV\u041a\u0430\u0445\u043e\u0432\u0441\u043a\u0430\u044f
p688
aa(lp689
g158
aV\u041a\u0430\u0445\u043e\u0432\u0441\u043a\u0430\u044f
p690
aa(lp691
Vgray
p692
aV\u041d\u0430\u0433\u043e\u0440\u043d\u0430\u044f
p693
aa(lp694
Vgray
p695
aV\u041d\u0430\u0433\u0430\u0442\u0438\u043d\u0441\u043a\u0430\u044f
p696
aa(lp697
Vgray
p698
aV\u041d\u0430\u0433\u0430\u0442\u0438\u043d\u0441\u043a\u0430\u044f
p699
aa(lp700
Vgray
p701
aV\u041d\u0430\u0433\u0430\u0442\u0438\u043d\u0441\u043a\u0430\u044f
p702
aa(lp703
g158
aV\u0412\u0430\u0440\u0448\u0430\u0432\u0441\u043a\u0430\u044f
p704
aa(lp705
g158
aV\u041a\u0430\u0448\u0438\u0440\u0441\u043a\u0430\u044f
p706
aa(lp707
g158
aV\u0412\u0430\u0440\u0448\u0430\u0432\u0441\u043a\u0430\u044f
p708
aa(lp709
g158
aV\u041a\u0430\u0448\u0438\u0440\u0441\u043a\u0430\u044f
p710
aa(lp711
g158
aV\u041a\u0430\u0448\u0438\u0440\u0441\u043a\u0430\u044f
p712
aa(lp713
g158
aV\u041a\u0430\u0448\u0438\u0440\u0441\u043a\u0430\u044f
p714
aa(lp715
g158
aV\u041a\u0430\u0448\u0438\u0440\u0441\u043a\u0430\u044f
p716
aa(lp717
Vorange
p718
aV\u041b\u0435\u043d\u0438\u043d\u0441\u043a\u0438\u0439 \u043f\u0440\u043e\u0441\u043f\u0435\u043a\u0442
p719
aa(lp720
Vorange
p721
aV\u041b\u0435\u043d\u0438\u043d\u0441\u043a\u0438\u0439 \u043f\u0440\u043e\u0441\u043f\u0435\u043a\u0442
p722
aa(lp723
g158
aV\u0417\u0418\u041b
p724
aa(lp725
g158
aV\u0417\u0418\u041b
p726
aa(lp727
g158
aV\u041f\u043b\u043e\u0449\u0430\u0434\u044c \u0413\u0430\u0433\u0430\u0440\u0438\u043d\u0430
p728
aa(lp729
Vgray
p730
aV\u0421\u0435\u0432\u0430\u0441\u0442\u043e\u043f\u043e\u043b\u044c\u0441\u043a\u0430\u044f
p731
aa(lp732
g158
aV\u0421\u0435\u0432\u0430\u0441\u0442\u043e\u043f\u043e\u043b\u044c\u0441\u043a\u0430\u044f
p733
aa(lp734
g158
aV\u0421\u0435\u0432\u0430\u0441\u0442\u043e\u043f\u043e\u043b\u044c\u0441\u043a\u0430\u044f
p735
aa(lp736
g158
aV\u0421\u0435\u0432\u0430\u0441\u0442\u043e\u043f\u043e\u043b\u044c\u0441\u043a\u0430\u044f
p737
aa(lp738
g158
aV\u0412\u0430\u0440\u0448\u0430\u0432\u0441\u043a\u0430\u044f
p739
aa(lp740
g158
aV\u0412\u0430\u0440\u0448\u0430\u0432\u0441\u043a\u0430\u044f
p741
aa(lp742
g158
aV\u041a\u0440\u044b\u043c\u0441\u043a\u0430\u044f
p743
aa(lp744
g158
aV\u041a\u0440\u044b\u043c\u0441\u043a\u0430\u044f
p745
aa(lp746
g158
aV\u0412\u0435\u0440\u0445\u043d\u0438\u0435 \u041a\u043e\u0442\u043b\u044b
p747
aa(lp748
g158
aV\u0412\u0435\u0440\u0445\u043d\u0438\u0435 \u041a\u043e\u0442\u043b\u044b
p749
aa(lp750
Vdarkgreen
p751
aV\u041a\u043e\u043b\u043e\u043c\u0435\u043d\u0441\u043a\u0430\u044f
p752
aa(lp753
Vlightgreen
p754
aV\u041c\u0430\u0440\u044c\u0438\u043d\u043e
p755
aa(lp756
Vlightgreen
p757
aV\u041c\u0430\u0440\u044c\u0438\u043d\u043e
p758
aa(lp759
Vlightgreen
p760
aV\u041c\u0430\u0440\u044c\u0438\u043d\u043e
p761
aa(lp762
Vlightgreen
p763
aV\u041c\u0430\u0440\u044c\u0438\u043d\u043e
p764
aa(lp765
Vlightgreen
p766
aV\u041c\u0430\u0440\u044c\u0438\u043d\u043e
p767
aa(lp768
Vlightgreen
p769
aV\u041c\u0430\u0440\u044c\u0438\u043d\u043e
p770
aa(lp771
Vlightgreen
p772
aV\u041c\u0430\u0440\u044c\u0438\u043d\u043e
p773
aa(lp774
Vlightgreen
p775
aV\u041c\u0430\u0440\u044c\u0438\u043d\u043e
p776
aa(lp777
g158
aV\u0410\u0432\u0442\u043e\u0437\u0430\u0432\u043e\u0434\u0441\u043a\u0430\u044f
p778
aa(lp779
g158
aV\u0410\u0432\u0442\u043e\u0437\u0430\u0432\u043e\u0434\u0441\u043a\u0430\u044f
p780
aa(lp781
Vlightgreen
p782
aV\u041f\u0435\u0447\u0430\u0442\u043d\u0438\u043a\u0438
p783
aa(lp784
Vlightgreen
p785
aV\u041f\u0435\u0447\u0430\u0442\u043d\u0438\u043a\u0438
p786
aa(lp787
Vdarkgreen
p788
aV\u041a\u043e\u043b\u043e\u043c\u0435\u043d\u0441\u043a\u0430\u044f
p789
aa(lp790
Vdarkgreen
p791
aV\u041a\u043e\u043b\u043e\u043c\u0435\u043d\u0441\u043a\u0430\u044f
p792
aa(lp793
Vdarkgreen
p794
aV\u041a\u043e\u043b\u043e\u043c\u0435\u043d\u0441\u043a\u0430\u044f
p795
aa(lp796
Vdarkgreen
p797
aV\u041a\u043e\u043b\u043e\u043c\u0435\u043d\u0441\u043a\u0430\u044f
p798
aa(lp799
Vdarkgreen
p800
aV\u041a\u043e\u043b\u043e\u043c\u0435\u043d\u0441\u043a\u0430\u044f
p801
aa(lp802
Vdarkgreen
p803
aV\u041a\u043e\u043b\u043e\u043c\u0435\u043d\u0441\u043a\u0430\u044f
p804
aa(lp805
Vlightgreen
p806
aV\u041a\u043e\u0436\u0443\u0445\u043e\u0432\u0441\u043a\u0430\u044f
p807
aa(lp808
Vlightgreen
p809
aV\u041f\u0435\u0447\u0430\u0442\u043d\u0438\u043a\u0438
p810
aa(lp811
Vlightgreen
p812
aV\u041f\u0435\u0447\u0430\u0442\u043d\u0438\u043a\u0438
p813
aa(lp814
Vdarkgreen
p815
aV\u041a\u043e\u043b\u043e\u043c\u0435\u043d\u0441\u043a\u0430\u044f
p816
aa(lp817
Vdarkgreen
p818
aV\u0410\u0432\u0442\u043e\u0437\u0430\u0432\u043e\u0434\u0441\u043a\u0430\u044f
p819
aa(lp820
Vdarkgreen
p821
aV\u0422\u0435\u0445\u043d\u043e\u043f\u0430\u0440\u043a
p822
aa(lp823
Vdarkgreen
p824
aV\u0422\u0435\u0445\u043d\u043e\u043f\u0430\u0440\u043a
p825
aa(lp826
Vdarkgreen
p827
aV\u0422\u0435\u0445\u043d\u043e\u043f\u0430\u0440\u043a
p828
aa(lp829
Vdarkgreen
p830
aV\u0422\u0435\u0445\u043d\u043e\u043f\u0430\u0440\u043a
p831
aa(lp832
Vlightgreen
p833
aV\u041a\u043e\u0436\u0443\u0445\u043e\u0432\u0441\u043a\u0430\u044f
p834
aa(lp835
Vlightgreen
p836
aV\u0412\u043e\u043b\u0436\u0441\u043a\u0430\u044f
p837
aa(lp838
Vlightgreen
p839
aV\u0411\u0440\u0430\u0442\u0438\u0441\u043b\u0430\u0432\u0441\u043a\u0430\u044f
p840
aa(lp841
Vlightgreen
p842
aV\u0411\u0440\u0430\u0442\u0438\u0441\u043b\u0430\u0432\u0441\u043a\u0430\u044f
p843
aa(lp844
Vlightgreen
p845
aV\u0411\u0440\u0430\u0442\u0438\u0441\u043b\u0430\u0432\u0441\u043a\u0430\u044f
p846
aa(lp847
Vlightgreen
p848
aV\u0411\u0440\u0430\u0442\u0438\u0441\u043b\u0430\u0432\u0441\u043a\u0430\u044f
p849
aa(lp850
Vlightgreen
p851
aV\u0412\u043e\u043b\u0436\u0441\u043a\u0430\u044f
p852
aa(lp853
Vlightgreen
p854
aV\u0412\u043e\u043b\u0436\u0441\u043a\u0430\u044f
p855
aa(lp856
Vlightgreen
p857
aV\u0411\u0440\u0430\u0442\u0438\u0441\u043b\u0430\u0432\u0441\u043a\u0430\u044f
p858
aa(lp859
Vlightgreen
p860
aV\u041b\u044e\u0431\u043b\u0438\u043d\u043e
p861
aa(lp862
Vlightgreen
p863
aV\u041b\u044e\u0431\u043b\u0438\u043d\u043e
p864
aa(lp865
Vlightgreen
p866
aV\u0411\u0440\u0430\u0442\u0438\u0441\u043b\u0430\u0432\u0441\u043a\u0430\u044f
p867
aa(lp868
Vviolet
p869
aV\u041a\u0443\u0437\u044c\u043c\u0438\u043d\u043a\u0438
p870
aa(lp871
Vviolet
p872
aV\u041a\u0443\u0437\u044c\u043c\u0438\u043d\u043a\u0438
p873
aa(lp874
Vviolet
p875
aV\u041a\u0443\u0437\u044c\u043c\u0438\u043d\u043a\u0438
p876
aa(lp877
Vviolet
p878
aV\u041a\u0443\u0437\u044c\u043c\u0438\u043d\u043a\u0438
p879
aa(lp880
Vviolet
p881
aV\u041a\u0443\u0437\u044c\u043c\u0438\u043d\u043a\u0438
p882
aa(lp883
Vviolet
p884
aV\u041a\u0443\u0437\u044c\u043c\u0438\u043d\u043a\u0438
p885
aa(lp886
Vviolet
p887
aV\u041a\u0443\u0437\u044c\u043c\u0438\u043d\u043a\u0438
p888
aa(lp889
Vviolet
p890
aV\u041a\u0443\u0437\u044c\u043c\u0438\u043d\u043a\u0438
p891
aa(lp892
Vlightgreen
p893
aV\u0412\u043e\u043b\u0436\u0441\u043a\u0430\u044f
p894
aa(lp895
Vlightgreen
p896
aV\u041b\u044e\u0431\u043b\u0438\u043d\u043e
p897
aa(lp898
Vlightgreen
p899
aV\u041b\u044e\u0431\u043b\u0438\u043d\u043e
p900
aa(lp901
Vlightgreen
p902
aV\u041b\u044e\u0431\u043b\u0438\u043d\u043e
p903
aa(lp904
Vlightgreen
p905
aV\u041b\u044e\u0431\u043b\u0438\u043d\u043e
p906
aa(lp907
Vblue
p908
aV\u041c\u043e\u043b\u043e\u0434\u0451\u0436\u043d\u0430\u044f
p909
aa(lp910
Vblue
p911
aV\u041a\u0440\u044b\u043b\u0430\u0442\u0441\u043a\u043e\u0435
p912
aa(lp913
Vblue
p914
aV\u041a\u0440\u044b\u043b\u0430\u0442\u0441\u043a\u043e\u0435
p915
aa(lp916
Vblue
p917
aV\u041c\u043e\u043b\u043e\u0434\u0451\u0436\u043d\u0430\u044f
p918
aa(lp919
Vblue
p920
aV\u041a\u0440\u044b\u043b\u0430\u0442\u0441\u043a\u043e\u0435
p921
aa(lp922
Vlightblue
p923
aV\u041a\u0443\u043d\u0446\u0435\u0432\u0441\u043a\u0430\u044f
p924
aa(lp925
Vlightblue
p926
aV\u041a\u0443\u043d\u0446\u0435\u0432\u0441\u043a\u0430\u044f
p927
aa(lp928
Vblue
p929
aV\u041a\u0440\u044b\u043b\u0430\u0442\u0441\u043a\u043e\u0435
p930
aa(lp931
Vblue
p932
aV\u041a\u0440\u044b\u043b\u0430\u0442\u0441\u043a\u043e\u0435
p933
aa(lp934
Vblue
p935
aV\u041a\u0440\u044b\u043b\u0430\u0442\u0441\u043a\u043e\u0435
p936
aa(lp937
Vblue
p938
aV\u041a\u0440\u044b\u043b\u0430\u0442\u0441\u043a\u043e\u0435
p939
aa(lp940
Vblue
p941
aV\u041a\u0440\u044b\u043b\u0430\u0442\u0441\u043a\u043e\u0435
p942
aa(lp943
Vlightblue
p944
aV\u0411\u0430\u0433\u0440\u0430\u0442\u0438\u043e\u043d\u043e\u0432\u0441\u043a\u0430\u044f
p945
aa(lp946
Vlightblue
p947
aV\u0424\u0438\u043b\u0451\u0432\u0441\u043a\u0438\u0439 \u043f\u0430\u0440\u043a
p948
aa(lp949
Vlightblue
p950
aV\u0424\u0438\u043b\u0438
p951
aa(lp952
Vblue
p953
aV\u041f\u0430\u0440\u043a \u041f\u043e\u0431\u0435\u0434\u044b
p954
aa(lp955
Vblue
p956
aV\u041f\u0430\u0440\u043a \u041f\u043e\u0431\u0435\u0434\u044b
p957
aa(lp958
Vblue
p959
aV\u0421\u043b\u0430\u0432\u044f\u043d\u0441\u043a\u0438\u0439 \u0431\u0443\u043b\u044c\u0432\u0430\u0440
p960
aa(lp961
Vblue
p962
aV\u0421\u043b\u0430\u0432\u044f\u043d\u0441\u043a\u0438\u0439 \u0431\u0443\u043b\u044c\u0432\u0430\u0440
p963
aa(lp964
Vviolet
p965
aV\u0411\u0435\u0433\u043e\u0432\u0430\u044f
p966
aa(lp967
Vviolet
p968
aV\u0411\u0435\u0433\u043e\u0432\u0430\u044f
p969
aa(lp970
Vblue
p971
aV\u041f\u0430\u0440\u043a \u041f\u043e\u0431\u0435\u0434\u044b
p972
aa(lp973
Vlightblue
p974
aV\u0412\u044b\u0441\u0442\u0430\u0432\u043e\u0447\u043d\u0430\u044f
p975
aa(lp976
Vlightblue
p977
aV\u041a\u0443\u0442\u0443\u0437\u043e\u0432\u0441\u043a\u0430\u044f
p978
aa(lp979
g158
aV\u0421\u0442\u0443\u0434\u0435\u043d\u0447\u0435\u0441\u043a\u0430\u044f
p980
aa(lp981
Vblue
p982
aV\u0421\u043b\u0430\u0432\u044f\u043d\u0441\u043a\u0438\u0439 \u0431\u0443\u043b\u044c\u0432\u0430\u0440
p983
aa(lp984
Vlightblue
p985
aV\u0412\u044b\u0441\u0442\u0430\u0432\u043e\u0447\u043d\u0430\u044f
p986
aa(lp987
Vlightblue
p988
aV\u0424\u0438\u043b\u0451\u0432\u0441\u043a\u0438\u0439 \u043f\u0430\u0440\u043a
p989
aa(lp990
Vblue
p991
aV\u041f\u0430\u0440\u043a \u041f\u043e\u0431\u0435\u0434\u044b
p992
aa(lp993
Vlightblue
p994
aV\u041a\u0443\u0442\u0443\u0437\u043e\u0432\u0441\u043a\u0430\u044f
p995
aa(lp996
Vviolet
p997
aV\u0411\u0435\u0433\u043e\u0432\u0430\u044f
p998
aa(lp999
Vviolet
p1000
aV\u0411\u0435\u0433\u043e\u0432\u0430\u044f
p1001
aa(lp1002
Vviolet
p1003
aV\u0411\u0435\u0433\u043e\u0432\u0430\u044f
p1004
aa(lp1005
Vblue
p1006
aV\u041f\u0430\u0440\u043a \u041f\u043e\u0431\u0435\u0434\u044b
p1007
aa(lp1008
Vlightblue
p1009
aV\u0412\u044b\u0441\u0442\u0430\u0432\u043e\u0447\u043d\u0430\u044f
p1010
aa(lp1011
Vyellow
p1012
aV\u0414\u0435\u043b\u043e\u0432\u043e\u0439 \u0446\u0435\u043d\u0442\u0440
p1013
aa(lp1014
Vlightblue
p1015
aV\u041c\u0435\u0436\u0434\u0443\u043d\u0430\u0440\u043e\u0434\u043d\u0430\u044f
p1016
aa(lp1017
Vlightblue
p1018
aV\u041c\u0435\u0436\u0434\u0443\u043d\u0430\u0440\u043e\u0434\u043d\u0430\u044f
p1019
aa(lp1020
Vlightblue
p1021
aV\u041c\u0435\u0436\u0434\u0443\u043d\u0430\u0440\u043e\u0434\u043d\u0430\u044f
p1022
aa(lp1023
g158
ag158
aa(lp1024
g158
aV\u041f\u0430\u0440\u043a \u041f\u043e\u0431\u0435\u0434\u044b
p1025
aa(lp1026
Vyellow
p1027
aV\u041b\u043e\u043c\u043e\u043d\u043e\u0441\u043e\u0432\u0441\u043a\u0438\u0439 \u043f\u0440\u043e\u0441\u043f\u0435\u043a\u0442
p1028
aa(lp1029
Vyellow
p1030
aV\u041c\u0438\u043d\u0441\u043a\u0430\u044f
p1031
aa(lp1032
Vyellow
p1033
aV\u041c\u0438\u043d\u0441\u043a\u0430\u044f
p1034
aa(lp1035
Vlightblue
p1036
aV\u041f\u0438\u043e\u043d\u0435\u0440\u0441\u043a\u0430\u044f
p1037
aa(lp1038
Vlightblue
p1039
aV\u041f\u0438\u043e\u043d\u0435\u0440\u0441\u043a\u0430\u044f
p1040
aa(lp1041
Vlightblue
p1042
aV\u0424\u0438\u043b\u0438
p1043
aa(lp1044
Vblue
p1045
aV\u0421\u043b\u0430\u0432\u044f\u043d\u0441\u043a\u0438\u0439 \u0431\u0443\u043b\u044c\u0432\u0430\u0440
p1046
aa(lp1047
Vviolet
p1048
aV\u0411\u0435\u0433\u043e\u0432\u0430\u044f
p1049
aa(lp1050
g158
ag158
aa(lp1051
Vlightblue
p1052
aV\u0424\u0438\u043b\u0438
p1053
aa(lp1054
Vlightblue
p1055
aV\u0424\u0438\u043b\u0438
p1056
aa(lp1057
Vred
p1058
aV\u041a\u0440\u0430\u0441\u043d\u044b\u0435 \u0412\u043e\u0440\u043e\u0442\u0430
p1059
aa(lp1060
Vred
p1061
aV\u0427\u0438\u0441\u0442\u044b\u0435 \u043f\u0440\u0443\u0434\u044b;\u0422\u0443\u0440\u0433\u0435\u043d\u0435\u0432\u0441\u043a\u0430\u044f
p1062
aa(lp1063
Vorange
p1064
aV\u041e\u043a\u0442\u044f\u0431\u0440\u044c\u0441\u043a\u0430\u044f
p1065
aa(lp1066
Vbrown
p1067
aV\u041e\u043a\u0442\u044f\u0431\u0440\u044c\u0441\u043a\u0430\u044f
p1068
aa(lp1069
Vred
p1070
aV\u0424\u0440\u0443\u043d\u0437\u0435\u043d\u0441\u043a\u0430\u044f
p1071
aa(lp1072
Vyellow
p1073
aV\u0422\u0440\u0435\u0442\u044c\u044f\u043a\u043e\u0432\u0441\u043a\u0430\u044f
p1074
aa(lp1075
Vlightgreen
p1076
aV\u0422\u0440\u0443\u0431\u043d\u0430\u044f
p1077
aa(lp1078
Vblue
p1079
aV\u0421\u043c\u043e\u043b\u0435\u043d\u0441\u043a\u0430\u044f
p1080
aa(lp1081
Vlightblue
p1082
aV\u0421\u043c\u043e\u043b\u0435\u043d\u0441\u043a\u0430\u044f
p1083
aa(lp1084
Vblue
p1085
aV\u041f\u043b\u043e\u0449\u0430\u0434\u044c \u0420\u0435\u0432\u043e\u043b\u044e\u0446\u0438\u0438;\u0422\u0435\u0430\u0442\u0440\u0430\u043b\u044c\u043d\u0430\u044f
p1086
aa(lp1087
Vred
p1088
aV\u041e\u0445\u043e\u0442\u043d\u044b\u0439 \u0420\u044f\u0434
p1089
aa(lp1090
Vlightblue
p1091
aV\u0411\u0438\u0431\u043b\u0438\u043e\u0442\u0435\u043a\u0430 \u0438\u043c\u0435\u043d\u0438 \u041b\u0435\u043d\u0438\u043d\u0430;\u0410\u043b\u0435\u043a\u0441\u0430\u043d\u0434\u0440\u043e\u0432\u0441\u043a\u0438\u0439 \u0441\u0430\u0434;\u0410\u0440\u0431\u0430\u0442\u0441\u043a\u0430\u044f
p1092
aa(lp1093
Vred
p1094
aV\u0411\u043e\u0440\u043e\u0432\u0438\u0446\u043a\u0430\u044f
p1095
aa(lp1096
Vviolet
p1097
aV\u041a\u0443\u0437\u043d\u0435\u0446\u043a\u0438\u0439 \u041c\u043e\u0441\u0442
p1098
aa(lp1099
Vorange
p1100
aV\u041a\u0438\u0442\u0430\u0439-\u0433\u043e\u0440\u043e\u0434
p1101
aa(lp1102
Vred
p1103
aV\u041a\u0440\u043e\u043f\u043e\u0442\u043a\u0438\u043d\u0441\u043a\u0430\u044f
p1104
aa(lp1105
Vred
p1106
aV\u041a\u0440\u043e\u043f\u043e\u0442\u043a\u0438\u043d\u0441\u043a\u0430\u044f
p1107
aa(lp1108
Vviolet
p1109
aV\u0422\u0432\u0435\u0440\u0441\u043a\u0430\u044f; \u041f\u0443\u0448\u043a\u0438\u043d\u0441\u043a\u0430\u044f
p1110
aa(lp1111
Vlightblue
p1112
aV\u0410\u0440\u0431\u0430\u0442\u0441\u043a\u0430\u044f
p1113
aa(lp1114
Vlightblue
p1115
aV\u0410\u043b\u0435\u043a\u0441\u0430\u043d\u0434\u0440\u043e\u0432\u0441\u043a\u0438\u0439 \u0441\u0430\u0434;\u0411\u0438\u0431\u043b\u0438\u043e\u0442\u0435\u043a\u0430 \u0438\u043c\u0435\u043d\u0438 \u041b\u0435\u043d\u0438\u043d\u0430;\u0410\u0440\u0431\u0430\u0442\u0441\u043a\u0430\u044f
p1116
aa(lp1117
Vlightblue
p1118
aV\u0410\u0440\u0431\u0430\u0442\u0441\u043a\u0430\u044f
p1119
aa(lp1120
Vred
p1121
aV\u041b\u0443\u0431\u044f\u043d\u043a\u0430
p1122
aa(lp1123
Vgray
p1124
aV\u0421\u0435\u0440\u043f\u0443\u0445\u043e\u0432\u0441\u043a\u0430\u044f
p1125
aa(lp1126
Vgray
p1127
aV\u0422\u0443\u043b\u044c\u0441\u043a\u0430\u044f
p1128
aa(lp1129
Vgray
p1130
aV\u0422\u0443\u043b\u044c\u0441\u043a\u0430\u044f
p1131
aa(lp1132
Vgray
p1133
aV\u041f\u043e\u043b\u044f\u043d\u043a\u0430
p1134
aa(lp1135
Vdarkgreen
p1136
aV\u041f\u0430\u0432\u0435\u043b\u0435\u0446\u043a\u0430\u044f
p1137
aa(lp1138
Vbrown
p1139
aV\u0414\u043e\u0431\u0440\u044b\u043d\u0438\u043d\u0441\u043a\u0430\u044f
p1140
aa(lp1141
Vred
p1142
aV\u0421\u043f\u043e\u0440\u0442\u0438\u0432\u043d\u0430\u044f
p1143
aa(lp1144
Vblue
p1145
aV\u041f\u043b\u043e\u0449\u0430\u0434\u044c \u0420\u0435\u0432\u043e\u043b\u044e\u0446\u0438\u0438
p1146
aa(lp1147
Vbrown
p1148
aV\u041a\u0440\u0430\u0441\u043d\u043e\u043f\u0440\u0435\u0441\u043d\u0435\u043d\u0441\u043a\u0430\u044f
p1149
aa(lp1150
Vred
p1151
aV\u0411\u0438\u0431\u043b\u0438\u043e\u0442\u0435\u043a\u0430 \u0438\u043c\u0435\u043d\u0438 \u041b\u0435\u043d\u0438\u043d\u0430;\u0410\u043b\u0435\u043a\u0441\u0430\u043d\u0434\u0440\u043e\u0432\u0441\u043a\u0438\u0439 \u0441\u0430\u0434;\u0410\u0440\u0431\u0430\u0442\u0441\u043a\u0430\u044f
p1152
aa(lp1153
Vgray
p1154
aV\u0421\u0435\u0440\u043f\u0443\u0445\u043e\u0432\u0441\u043a\u0430\u044f
p1155
aa(lp1156
g158
ag158
aa(lp1157
g158
ag158
aa(lp1158
Vdarkgreen
p1159
aV\u041d\u043e\u0432\u043e\u043a\u0443\u0437\u043d\u0435\u0446\u043a\u0430\u044f
p1160
aa(lp1161
Vviolet
p1162
aV\u041a\u0438\u0442\u0430\u0439-\u0433\u043e\u0440\u043e\u0434
p1163
aa(lp1164
Vviolet
p1165
aV\u041a\u0438\u0442\u0430\u0439-\u0433\u043e\u0440\u043e\u0434
p1166
aa(lp1167
Vviolet
p1168
aV\u041a\u0438\u0442\u0430\u0439-\u0433\u043e\u0440\u043e\u0434
p1169
aa(lp1170
Vred
p1171
aV\u0411\u0438\u0431\u043b\u0438\u043e\u0442\u0435\u043a\u0430 \u0438\u043c\u0435\u043d\u0438 \u041b\u0435\u043d\u0438\u043d\u0430;\u0410\u043b\u0435\u043a\u0441\u0430\u043d\u0434\u0440\u043e\u0432\u0441\u043a\u0438\u0439 \u0441\u0430\u0434;\u0410\u0440\u0431\u0430\u0442\u0441\u043a\u0430\u044f
p1172
aa(lp1173
Vlightblue
p1174
aV\u0411\u0438\u0431\u043b\u0438\u043e\u0442\u0435\u043a\u0430 \u0438\u043c\u0435\u043d\u0438 \u041b\u0435\u043d\u0438\u043d\u0430;\u0410\u043b\u0435\u043a\u0441\u0430\u043d\u0434\u0440\u043e\u0432\u0441\u043a\u0438\u0439 \u0441\u0430\u0434;\u0410\u0440\u0431\u0430\u0442\u0441\u043a\u0430\u044f
p1175
aa(lp1176
Vviolet
p1177
aV\u0423\u043b\u0438\u0446\u0430 1905 \u0433\u043e\u0434\u0430
p1178
aa(lp1179
Vgray
p1180
aV\u0427\u0435\u0445\u043e\u0432\u0441\u043a\u0430\u044f;\u041f\u0443\u0448\u043a\u0438\u043d\u0441\u043a\u0430\u044f
p1181
aa(lp1182
Vdarkgreen
p1183
aV\u0422\u0432\u0435\u0440\u0441\u043a\u0430\u044f; \u041f\u0443\u0448\u043a\u0438\u043d\u0441\u043a\u0430\u044f
p1184
aa(lp1185
Vgray
p1186
aV\u0427\u0435\u0445\u043e\u0432\u0441\u043a\u0430\u044f;\u041f\u0443\u0448\u043a\u0438\u043d\u0441\u043a\u0430\u044f
p1187
aa(lp1188
Vviolet
p1189
aV\u0422\u0432\u0435\u0440\u0441\u043a\u0430\u044f;\u041f\u0443\u0448\u043a\u0438\u043d\u0441\u043a\u0430\u044f
p1190
aa(lp1191
Vviolet
p1192
aV\u041f\u0443\u0448\u043a\u0438\u043d\u0441\u043a\u0430\u044f;\u0422\u0432\u0435\u0440\u0441\u043a\u0430\u044f
p1193
aa(lp1194
Vdarkgreen
p1195
aV\u0422\u0432\u0435\u0440\u0441\u043a\u0430\u044f; \u041f\u0443\u0448\u043a\u0438\u043d\u0441\u043a\u0430\u044f
p1196
aa(lp1197
Vviolet
p1198
aV\u041f\u0443\u0448\u043a\u0438\u043d\u0441\u043a\u0430\u044f;\u0422\u0432\u0435\u0440\u0441\u043a\u0430\u044f
p1199
aa(lp1200
Vorange
p1201
aV\u0421\u0443\u0445\u0430\u0440\u0435\u0432\u0441\u043a\u0430\u044f
p1202
aa(lp1203
Vorange
p1204
aV\u0421\u0443\u0445\u0430\u0440\u0435\u0432\u0441\u043a\u0430\u044f
p1205
aa(lp1206
Vorange
p1207
aV\u0421\u0443\u0445\u0430\u0440\u0435\u0432\u0441\u043a\u0430\u044f
p1208
aa(lp1209
Vred
p1210
aV\u041b\u0443\u0431\u044f\u043d\u043a\u0430
p1211
aa(lp1212
Vred
p1213
aV\u041b\u0443\u0431\u044f\u043d\u043a\u0430
p1214
aa(lp1215
Vred
p1216
aV\u041b\u0443\u0431\u044f\u043d\u043a\u0430
p1217
aa(lp1218
Vred
p1219
aV\u041b\u0443\u0431\u044f\u043d\u043a\u0430
p1220
aa(lp1221
Vred
p1222
aV\u041b\u0443\u0431\u044f\u043d\u043a\u0430
p1223
aa(lp1224
Vred
p1225
aV\u041b\u0443\u0431\u044f\u043d\u043a\u0430
p1226
aa(lp1227
Vred
p1228
aV\u041b\u0443\u0431\u044f\u043d\u043a\u0430
p1229
aa(lp1230
Vred
p1231
aV\u041b\u0443\u0431\u044f\u043d\u043a\u0430
p1232
aa(lp1233
Vred
p1234
aV\u041e\u0445\u043e\u0442\u043d\u044b\u0439 \u0420\u044f\u0434
p1235
aa(lp1236
Vred
p1237
aV\u041e\u0445\u043e\u0442\u043d\u044b\u0439 \u0420\u044f\u0434
p1238
aa(lp1239
Vred
p1240
aV\u041f\u0430\u0440\u043a \u043a\u0443\u043b\u044c\u0442\u0443\u0440\u044b
p1241
aa(lp1242
Vlightblue
p1243
aV\u041a\u0438\u0435\u0432\u0441\u043a\u0430\u044f
p1244
aa(lp1245
Vlightblue
p1246
aV\u041a\u0438\u0435\u0432\u0441\u043a\u0430\u044f
p1247
aa(lp1248
Vlightblue
p1249
aV\u041a\u0438\u0435\u0432\u0441\u043a\u0430\u044f
p1250
aa(lp1251
Vblue
p1252
aV\u041a\u0438\u0435\u0432\u0441\u043a\u0430\u044f
p1253
aa(lp1254
Vlightblue
p1255
aV\u041a\u0438\u0435\u0432\u0441\u043a\u0430\u044f
p1256
aa(lp1257
Vlightgreen
p1258
aV\u0422\u0443\u0440\u0433\u0435\u043d\u0435\u0432\u0441\u043a\u0430\u044f;\u0427\u0438\u0441\u0442\u044b\u0435 \u043f\u0440\u0443\u0434\u044b;\u0421\u0440\u0435\u0442\u0435\u043d\u0441\u043a\u0438\u0439 \u0431\u0443\u043b\u044c\u0432\u0430\u0440
p1259
aa(lp1260
Vlightgreen
p1261
aV\u0422\u0443\u0440\u0433\u0435\u043d\u0435\u0432\u0441\u043a\u0430\u044f;\u0427\u0438\u0441\u0442\u044b\u0435 \u043f\u0440\u0443\u0434\u044b;\u0421\u0440\u0435\u0442\u0435\u043d\u0441\u043a\u0438\u0439 \u0431\u0443\u043b\u044c\u0432\u0430\u0440
p1262
aa(lp1263
Vorange
p1264
aV\u0422\u0443\u0440\u0433\u0435\u043d\u0435\u0432\u0441\u043a\u0430\u044f;\u0427\u0438\u0441\u0442\u044b\u0435 \u043f\u0440\u0443\u0434\u044b;\u0421\u0440\u0435\u0442\u0435\u043d\u0441\u043a\u0438\u0439 \u0431\u0443\u043b\u044c\u0432\u0430\u0440
p1265
aa(lp1266
Vorange
p1267
aV\u0422\u0443\u0440\u0433\u0435\u043d\u0435\u0432\u0441\u043a\u0430\u044f;\u0427\u0438\u0441\u0442\u044b\u0435 \u043f\u0440\u0443\u0434\u044b;\u0421\u0440\u0435\u0442\u0435\u043d\u0441\u043a\u0438\u0439 \u0431\u0443\u043b\u044c\u0432\u0430\u0440
p1268
aa(lp1269
Vred
p1270
aV\u0412\u043e\u0440\u043e\u0431\u044c\u0451\u0432\u044b \u0433\u043e\u0440\u044b
p1271
aa(lp1272
Vred
p1273
aV\u0412\u043e\u0440\u043e\u0431\u044c\u0451\u0432\u044b \u0433\u043e\u0440\u044b
p1274
aa(lp1275
Vred
p1276
aV\u041e\u0445\u043e\u0442\u043d\u044b\u0439 \u0420\u044f\u0434
p1277
aa(lp1278
Vred
p1279
aV\u041e\u0445\u043e\u0442\u043d\u044b\u0439 \u0420\u044f\u0434
p1280
aa(lp1281
Vred
p1282
aV\u041e\u0445\u043e\u0442\u043d\u044b\u0439 \u0420\u044f\u0434
p1283
aa(lp1284
Vred
p1285
aV\u0411\u0438\u0431\u043b\u0438\u043e\u0442\u0435\u043a\u0430 \u0438\u043c\u0435\u043d\u0438 \u041b\u0435\u043d\u0438\u043d\u0430;\u0410\u043b\u0435\u043a\u0441\u0430\u043d\u0434\u0440\u043e\u0432\u0441\u043a\u0438\u0439 \u0441\u0430\u0434;\u0410\u0440\u0431\u0430\u0442\u0441\u043a\u0430\u044f
p1286
aa(lp1287
Vorange
p1288
aV\u041a\u0438\u0442\u0430\u0439-\u0433\u043e\u0440\u043e\u0434
p1289
aa(lp1290
Vorange
p1291
aV\u041a\u0438\u0442\u0430\u0439-\u0433\u043e\u0440\u043e\u0434
p1292
aa(lp1293
Vorange
p1294
aV\u041a\u0438\u0442\u0430\u0439-\u0433\u043e\u0440\u043e\u0434
p1295
aa(lp1296
Vorange
p1297
aV\u041a\u0438\u0442\u0430\u0439-\u0433\u043e\u0440\u043e\u0434
p1298
aa(lp1299
Vorange
p1300
aV\u041a\u0438\u0442\u0430\u0439-\u0433\u043e\u0440\u043e\u0434
p1301
aa(lp1302
Vorange
p1303
aV\u041a\u0438\u0442\u0430\u0439-\u0433\u043e\u0440\u043e\u0434
p1304
aa(lp1305
Vviolet
p1306
aV\u041a\u0438\u0442\u0430\u0439-\u0433\u043e\u0440\u043e\u0434
p1307
aa(lp1308
Vviolet
p1309
aV\u041a\u0438\u0442\u0430\u0439-\u0433\u043e\u0440\u043e\u0434
p1310
aa(lp1311
Vorange
p1312
aV\u0422\u0443\u0440\u0433\u0435\u043d\u0435\u0432\u0441\u043a\u0430\u044f;\u0427\u0438\u0441\u0442\u044b\u0435 \u043f\u0440\u0443\u0434\u044b;\u0421\u0440\u0435\u0442\u0435\u043d\u0441\u043a\u0438\u0439 \u0431\u0443\u043b\u044c\u0432\u0430\u0440
p1313
aa(lp1314
Vorange
p1315
aV\u0421\u0443\u0445\u0430\u0440\u0435\u0432\u0441\u043a\u0430\u044f
p1316
aa(lp1317
Vdarkgreen
p1318
aV\u041c\u0430\u044f\u043a\u043e\u0432\u0441\u043a\u0430\u044f
p1319
aa(lp1320
Vlightgreen
p1321
aV\u0422\u0440\u0443\u0431\u043d\u0430\u044f
p1322
aa(lp1323
Vdarkgreen
p1324
aV\u041c\u0430\u044f\u043a\u043e\u0432\u0441\u043a\u0430\u044f
p1325
aa(lp1326
Vviolet
p1327
aV\u041a\u0438\u0442\u0430\u0439-\u0433\u043e\u0440\u043e\u0434
p1328
aa(lp1329
Vviolet
p1330
aV\u041a\u0438\u0442\u0430\u0439-\u0433\u043e\u0440\u043e\u0434
p1331
aa(lp1332
Vviolet
p1333
aV\u0423\u043b\u0438\u0446\u0430 1905 \u0433\u043e\u0434\u0430
p1334
aa(lp1335
g158
ag158
aa(lp1336
Vred
p1337
aV\u041e\u0445\u043e\u0442\u043d\u044b\u0439 \u0420\u044f\u0434
p1338
aa(lp1339
Vred
p1340
aV\u0427\u0438\u0441\u0442\u044b\u0435 \u043f\u0440\u0443\u0434\u044b;\u0422\u0443\u0440\u0433\u0435\u043d\u0435\u0432\u0441\u043a\u0430\u044f
p1341
aa(lp1342
Vblue
p1343
aV\u041f\u043b\u043e\u0449\u0430\u0434\u044c \u0420\u0435\u0432\u043e\u043b\u044e\u0446\u0438\u0438; \u0422\u0435\u0430\u0442\u0440\u0430\u043b\u044c\u043d\u0430\u044f
p1344
aa(lp1345
Vorange
p1346
aV\u0422\u0443\u0440\u0433\u0435\u043d\u0435\u0432\u0441\u043a\u0430\u044f;\u0427\u0438\u0441\u0442\u044b\u0435 \u043f\u0440\u0443\u0434\u044b;\u0421\u0440\u0435\u0442\u0435\u043d\u0441\u043a\u0438\u0439 \u0431\u0443\u043b\u044c\u0432\u0430\u0440
p1347
aa(lp1348
Vbrown
p1349
aV\u041a\u0438\u0435\u0432\u0441\u043a\u0430\u044f
p1350
aa(lp1351
Vbrown
p1352
aV\u041f\u0430\u0432\u0435\u043b\u0435\u0446\u043a\u0430\u044f
p1353
aa(lp1354
Vred
p1355
aV\u0412\u043e\u0440\u043e\u0431\u044c\u0451\u0432\u044b \u0433\u043e\u0440\u044b
p1356
aa(lp1357
Vgray
p1358
aV\u0427\u0435\u0445\u043e\u0432\u0441\u043a\u0430\u044f;\u041f\u0443\u0448\u043a\u0438\u043d\u0441\u043a\u0430\u044f
p1359
aa(lp1360
Vred
p1361
aV\u0411\u0438\u0431\u043b\u0438\u043e\u0442\u0435\u043a\u0430 \u0438\u043c\u0435\u043d\u0438 \u041b\u0435\u043d\u0438\u043d\u0430;\u0410\u043b\u0435\u043a\u0441\u0430\u043d\u0434\u0440\u043e\u0432\u0441\u043a\u0438\u0439 \u0441\u0430\u0434;\u0410\u0440\u0431\u0430\u0442\u0441\u043a\u0430\u044f
p1362
aa(lp1363
Vdarkgreen
p1364
aV\u041c\u0430\u044f\u043a\u043e\u0432\u0441\u043a\u0430\u044f
p1365
aa(lp1366
Vviolet
p1367
aV\u0422\u0432\u0435\u0440\u0441\u043a\u0430\u044f;\u041f\u0443\u0448\u043a\u0438\u043d\u0441\u043a\u0430\u044f
p1368
aa(lp1369
Vred
p1370
aV\u0412\u043e\u0440\u043e\u0431\u044c\u0451\u0432\u044b \u0433\u043e\u0440\u044b
p1371
aa(lp1372
Vlightblue
p1373
aV\u041a\u0438\u0435\u0432\u0441\u043a\u0430\u044f
p1374
aa(lp1375
Vviolet
p1376
aV\u0422\u0432\u0435\u0440\u0441\u043a\u0430\u044f; \u041f\u0443\u0448\u043a\u0438\u043d\u0441\u043a\u0430\u044f
p1377
aa(lp1378
Vviolet
p1379
aV\u041f\u0443\u0448\u043a\u0438\u043d\u0441\u043a\u0430\u044f;\u0422\u0432\u0435\u0440\u0441\u043a\u0430\u044f
p1380
aa(lp1381
Vdarkgreen
p1382
aV\u041f\u0430\u0432\u0435\u043b\u0435\u0446\u043a\u0430\u044f
p1383
aa(lp1384
Vdarkgreen
p1385
aV\u0422\u0432\u0435\u0440\u0441\u043a\u0430\u044f; \u041f\u0443\u0448\u043a\u0438\u043d\u0441\u043a\u0430\u044f
p1386
aa(lp1387
Vgray
p1388
aV\u0427\u0435\u0445\u043e\u0432\u0441\u043a\u0430\u044f;\u041f\u0443\u0448\u043a\u0438\u043d\u0441\u043a\u0430\u044f
p1389
aa(lp1390
Vred
p1391
aV\u041b\u0443\u0431\u044f\u043d\u043a\u0430
p1392
aa(lp1393
Vbrown
p1394
aV\u041f\u0430\u0440\u043a \u043a\u0443\u043b\u044c\u0442\u0443\u0440\u044b
p1395
aa(lp1396
Vviolet
p1397
aV\u0423\u043b\u0438\u0446\u0430 1905 \u0433\u043e\u0434\u0430
p1398
aa(lp1399
Vred
p1400
aV\u041a\u0440\u043e\u043f\u043e\u0442\u043a\u0438\u043d\u0441\u043a\u0430\u044f
p1401
aa(lp1402
Vorange
p1403
aV\u0428\u0430\u0431\u043e\u043b\u043e\u0432\u0441\u043a\u0430\u044f
p1404
aa(lp1405
Vorange
p1406
aV\u041e\u043a\u0442\u044f\u0431\u0440\u044c\u0441\u043a\u0430\u044f
p1407
aa(lp1408
Vred
p1409
aV\u041a\u0440\u0430\u0441\u043d\u044b\u0435 \u0412\u043e\u0440\u043e\u0442\u0430
p1410
aa(lp1411
Vgray
p1412
aV\u0426\u0432\u0435\u0442\u043d\u043e\u0439 \u0431\u0443\u043b\u044c\u0432\u0430\u0440
p1413
aa(lp1414
Vviolet
p1415
aV\u0411\u0430\u0440\u0440\u0438\u043a\u0430\u0434\u043d\u0430\u044f
p1416
aa(lp1417
Vblue
p1418
aV\u041a\u0438\u0435\u0432\u0441\u043a\u0430\u044f
p1419
aa(lp1420
Vblue
p1421
aV\u041f\u043b\u043e\u0449\u0430\u0434\u044c \u0420\u0435\u0432\u043e\u043b\u044e\u0446\u0438\u0438
p1422
aa(lp1423
Vbrown
p1424
aV\u041a\u0440\u0430\u0441\u043d\u043e\u043f\u0440\u0435\u0441\u043d\u0435\u043d\u0441\u043a\u0430\u044f
p1425
aa(lp1426
Vdarkgreen
p1427
aV\u041e\u0445\u043e\u0442\u043d\u044b\u0439 \u0420\u044f\u0434; \u0422\u0435\u0430\u0442\u0440\u0430\u043b\u044c\u043d\u0430\u044f
p1428
aa(lp1429
Vdarkgreen
p1430
aV\u041e\u0445\u043e\u0442\u043d\u044b\u0439 \u0420\u044f\u0434; \u0422\u0435\u0430\u0442\u0440\u0430\u043b\u044c\u043d\u0430\u044f
p1431
aa(lp1432
g158
aV\u041b\u0443\u0436\u043d\u0438\u043a\u0438
p1433
aa(lp1434
Vdarkgreen
p1435
aV\u0410\u0432\u0442\u043e\u0437\u0430\u0432\u043e\u0434\u0441\u043a\u0430\u044f
p1436
aa(lp1437
Vblue
p1438
aV\u0411\u0430\u0443\u043c\u0430\u043d\u0441\u043a\u0430\u044f
p1439
aa(lp1440
Vbrown
p1441
aV\u041a\u0443\u0440\u0441\u043a\u0430\u044f
p1442
aa(lp1443
Vlightgreen
p1444
aV\u041a\u0440\u0435\u0441\u0442\u044c\u044f\u043d\u0441\u043a\u0430\u044f \u0417\u0430\u0441\u0442\u0430\u0432\u0430;\u041f\u0440\u043e\u043b\u0435\u0442\u0430\u0440\u0441\u043a\u0430\u044f
p1445
aa(lp1446
Vviolet
p1447
aV\u041f\u0440\u043e\u043b\u0435\u0442\u0430\u0440\u0441\u043a\u0430\u044f
p1448
aa(lp1449
Vviolet
p1450
aV\u0412\u043e\u043b\u0433\u043e\u0433\u0440\u0430\u0434\u0441\u043a\u0438\u0439 \u043f\u0440\u043e\u0441\u043f\u0435\u043a\u0442
p1451
aa(lp1452
Vviolet
p1453
aV\u0412\u043e\u043b\u0433\u043e\u0433\u0440\u0430\u0434\u0441\u043a\u0438\u0439 \u043f\u0440\u043e\u0441\u043f\u0435\u043a\u0442
p1454
aa(lp1455
Vyellow
p1456
aV\u0410\u0432\u0438\u0430\u043c\u043e\u0442\u043e\u0440\u043d\u0430\u044f
p1457
aa(lp1458
Vyellow
p1459
aV\u0410\u0432\u0438\u0430\u043c\u043e\u0442\u043e\u0440\u043d\u0430\u044f
p1460
aa(lp1461
Vyellow
p1462
aV\u0410\u0432\u0438\u0430\u043c\u043e\u0442\u043e\u0440\u043d\u0430\u044f
p1463
aa(lp1464
Vyellow
p1465
aV\u0410\u0432\u0438\u0430\u043c\u043e\u0442\u043e\u0440\u043d\u0430\u044f
p1466
aa(lp1467
Vyellow
p1468
aV\u0410\u0432\u0438\u0430\u043c\u043e\u0442\u043e\u0440\u043d\u0430\u044f
p1469
aa(lp1470
Vyellow
p1471
aV\u0410\u0432\u0438\u0430\u043c\u043e\u0442\u043e\u0440\u043d\u0430\u044f
p1472
aa(lp1473
Vyellow
p1474
aV\u0410\u0432\u0438\u0430\u043c\u043e\u0442\u043e\u0440\u043d\u0430\u044f
p1475
aa(lp1476
Vyellow
p1477
aV\u0410\u0432\u0438\u0430\u043c\u043e\u0442\u043e\u0440\u043d\u0430\u044f
p1478
aa(lp1479
Vviolet
p1480
aV\u0422\u0435\u043a\u0441\u0442\u0438\u043b\u044c\u0449\u0438\u043a\u0438
p1481
aa(lp1482
Vyellow
p1483
aV\u0410\u0432\u0438\u0430\u043c\u043e\u0442\u043e\u0440\u043d\u0430\u044f
p1484
aa(lp1485
Vviolet
p1486
aV\u0422\u0435\u043a\u0441\u0442\u0438\u043b\u044c\u0449\u0438\u043a\u0438
p1487
aa(lp1488
Vviolet
p1489
aV\u0422\u0435\u043a\u0441\u0442\u0438\u043b\u044c\u0449\u0438\u043a\u0438
p1490
aa(lp1491
Vbrown
p1492
aV\u041a\u043e\u043c\u0441\u043e\u043c\u043e\u043b\u044c\u0441\u043a\u0430\u044f
p1493
aa(lp1494
g158
aV\u041f\u043b\u043e\u0449\u0430\u0434\u044c \u0418\u043b\u044c\u0438\u0447\u0430;\u0420\u0438\u043c\u0441\u043a\u0430\u044f
p1495
aa(lp1496
g158
aV\u041a\u0443\u0440\u0441\u043a\u0430\u044f
p1497
aa(lp1498
Vlightgreen
p1499
aV\u041a\u0443\u0440\u0441\u043a\u0430\u044f;\u0427\u043a\u0430\u043b\u043e\u0432\u0441\u043a\u0430\u044f
p1500
aa(lp1501
g158
aV\u041f\u043b\u043e\u0449\u0430\u0434\u044c \u0418\u043b\u044c\u0438\u0447\u0430;\u0420\u0438\u043c\u0441\u043a\u0430\u044f
p1502
aa(lp1503
g158
aV\u041f\u043b\u043e\u0449\u0430\u0434\u044c \u0418\u043b\u044c\u0438\u0447\u0430;\u0420\u0438\u043c\u0441\u043a\u0430\u044f
p1504
aa(lp1505
g158
aV\u041f\u043b\u043e\u0449\u0430\u0434\u044c \u0418\u043b\u044c\u0438\u0447\u0430;\u0420\u0438\u043c\u0441\u043a\u0430\u044f
p1506
aa(lp1507
Vbrown
p1508
aV\u041a\u0443\u0440\u0441\u043a\u0430\u044f
p1509
aa(lp1510
Vbrown
p1511
aV\u041a\u0443\u0440\u0441\u043a\u0430\u044f
p1512
aa(lp1513
Vbrown
p1514
aV\u041a\u043e\u043c\u0441\u043e\u043c\u043e\u043b\u044c\u0441\u043a\u0430\u044f
p1515
aa(lp1516
g158
aV\u0423\u0433\u0440\u0435\u0448\u0441\u043a\u0430\u044f
p1517
aa(lp1518
g158
aV\u0423\u0433\u0440\u0435\u0448\u0441\u043a\u0430\u044f
p1519
aa(lp1520
g158
aV\u0423\u0433\u0440\u0435\u0448\u0441\u043a\u0430\u044f
p1521
aa(lp1522
Vlightgreen
p1523
aV\u041a\u0443\u0440\u0441\u043a\u0430\u044f;\u0427\u043a\u0430\u043b\u043e\u0432\u0441\u043a\u0430\u044f
p1524
aa(lp1525
Vviolet
p1526
aV\u041f\u0440\u043e\u043b\u0435\u0442\u0430\u0440\u0441\u043a\u0430\u044f
p1527
aa(lp1528
Vviolet
p1529
aV\u041f\u0440\u043e\u043b\u0435\u0442\u0430\u0440\u0441\u043a\u0430\u044f
p1530
aa(lp1531
Vviolet
p1532
aV\u041f\u0440\u043e\u043b\u0435\u0442\u0430\u0440\u0441\u043a\u0430\u044f
p1533
aa(lp1534
Vviolet
p1535
aV\u041f\u0440\u043e\u043b\u0435\u0442\u0430\u0440\u0441\u043a\u0430\u044f
p1536
aa(lp1537
Vviolet
p1538
aV\u041f\u0440\u043e\u043b\u0435\u0442\u0430\u0440\u0441\u043a\u0430\u044f
p1539
aa(lp1540
Vviolet
p1541
aV\u041f\u0440\u043e\u043b\u0435\u0442\u0430\u0440\u0441\u043a\u0430\u044f
p1542
aa(lp1543
Vviolet
p1544
aV\u041f\u0440\u043e\u043b\u0435\u0442\u0430\u0440\u0441\u043a\u0430\u044f
p1545
aa(lp1546
Vviolet
p1547
aV\u041f\u0440\u043e\u043b\u0435\u0442\u0430\u0440\u0441\u043a\u0430\u044f
p1548
aa(lp1549
Vlightgreen
p1550
aV\u0414\u0443\u0431\u0440\u043e\u0432\u043a\u0430
p1551
aa(lp1552
Vlightgreen
p1553
aV\u0414\u0443\u0431\u0440\u043e\u0432\u043a\u0430
p1554
aa(lp1555
Vyellow
p1556
aV\u041c\u0430\u0440\u043a\u0441\u0438\u0441\u0442\u0441\u043a\u0430\u044f
p1557
aa(lp1558
Vviolet
p1559
aV\u0422\u0430\u0433\u0430\u043d\u0441\u043a\u0430\u044f
p1560
aa(lp1561
Vviolet
p1562
aV\u0422\u0430\u0433\u0430\u043d\u0441\u043a\u0430\u044f
p1563
aa(lp1564
Vbrown
p1565
aV\u0422\u0430\u0433\u0430\u043d\u0441\u043a\u0430\u044f
p1566
aa(lp1567
Vviolet
p1568
aV\u0422\u0430\u0433\u0430\u043d\u0441\u043a\u0430\u044f
p1569
aa(lp1570
Vyellow
p1571
aV\u041c\u0430\u0440\u043a\u0441\u0438\u0441\u0442\u0441\u043a\u0430\u044f
p1572
aa(lp1573
Vviolet
p1574
aV\u0412\u043e\u043b\u0433\u043e\u0433\u0440\u0430\u0434\u0441\u043a\u0438\u0439 \u043f\u0440\u043e\u0441\u043f\u0435\u043a\u0442
p1575
aa(lp1576
Vviolet
p1577
aV\u0422\u0435\u043a\u0441\u0442\u0438\u043b\u044c\u0449\u0438\u043a\u0438
p1578
aa(lp1579
Vviolet
p1580
aV\u0422\u0435\u043a\u0441\u0442\u0438\u043b\u044c\u0449\u0438\u043a\u0438
p1581
aa(lp1582
Vviolet
p1583
aV\u0422\u0435\u043a\u0441\u0442\u0438\u043b\u044c\u0449\u0438\u043a\u0438
p1584
aa(lp1585
Vviolet
p1586
aV\u0422\u0435\u043a\u0441\u0442\u0438\u043b\u044c\u0449\u0438\u043a\u0438
p1587
aa(lp1588
Vviolet
p1589
aV\u0422\u0435\u043a\u0441\u0442\u0438\u043b\u044c\u0449\u0438\u043a\u0438
p1590
aa(lp1591
Vdarkgreen
p1592
aV\u0410\u0432\u0442\u043e\u0437\u0430\u0432\u043e\u0434\u0441\u043a\u0430\u044f
p1593
aa(lp1594
g158
aV\u0421\u043e\u043a\u043e\u043b\u0438\u043d\u0430\u044f \u0413\u043e\u0440\u0430
p1595
aa(lp1596
Vlightgreen
p1597
aV\u0414\u0443\u0431\u0440\u043e\u0432\u043a\u0430
p1598
aa(lp1599
Vviolet
p1600
aV\u0412\u043e\u043b\u0433\u043e\u0433\u0440\u0430\u0434\u0441\u043a\u0438\u0439 \u043f\u0440\u043e\u0441\u043f\u0435\u043a\u0442
p1601
aa(lp1602
g158
aV\u0421\u043e\u043a\u043e\u043b\u0438\u043d\u0430\u044f \u0413\u043e\u0440\u0430
p1603
aa(lp1604
g158
aV\u0428\u043e\u0441\u0441\u0435 \u042d\u043d\u0442\u0443\u0437\u0438\u0430\u0441\u0442\u043e\u0432
p1605
aa(lp1606
Vyellow
p1607
aV\u041f\u043b\u043e\u0449\u0430\u0434\u044c \u0418\u043b\u044c\u0438\u0447\u0430
p1608
aa(lp1609
Vlightgreen
p1610
aV\u0420\u0438\u043c\u0441\u043a\u0430\u044f
p1611
aa(lp1612
g158
aV\u041d\u0438\u0436\u0435\u0433\u043e\u0440\u043e\u0434\u0441\u043a\u0430\u044f
p1613
aa(lp1614
g158
aV\u0414\u0443\u0431\u0440\u043e\u0432\u043a\u0430
p1615
aa(lp1616
g158
aV\u0414\u0443\u0431\u0440\u043e\u0432\u043a\u0430
p1617
aa(lp1618
g158
aV\u0414\u0443\u0431\u0440\u043e\u0432\u043a\u0430
p1619
aa(lp1620
g158
aV\u041d\u043e\u0432\u043e\u0445\u043e\u0445\u043b\u043e\u0432\u0441\u043a\u0430\u044f
p1621
aa(lp1622
g158
aV\u041d\u043e\u0432\u043e\u0445\u043e\u0445\u043b\u043e\u0432\u0441\u043a\u0430\u044f
p1623
aa(lp1624
g158
aV\u0410\u043d\u0434\u0440\u043e\u043d\u043e\u0432\u043a\u0430
p1625
aa(lp1626
g158
aV\u0410\u043d\u0434\u0440\u043e\u043d\u043e\u0432\u043a\u0430
p1627
aa(lp1628
Vyellow
p1629
aV\u041d\u043e\u0432\u043e\u0433\u0438\u0440\u0435\u0435\u0432\u043e
p1630
aa(lp1631
Vyellow
p1632
aV\u041f\u0435\u0440\u043e\u0432\u043e
p1633
aa(lp1634
Vyellow
p1635
aV\u041d\u043e\u0432\u043e\u0433\u0438\u0440\u0435\u0435\u0432\u043e
p1636
aa(lp1637
Vyellow
p1638
aV\u041d\u043e\u0432\u043e\u0433\u0438\u0440\u0435\u0435\u0432\u043e
p1639
aa(lp1640
Vyellow
p1641
aV\u041d\u043e\u0432\u043e\u0433\u0438\u0440\u0435\u0435\u0432\u043e
p1642
aa(lp1643
Vyellow
p1644
aV\u041d\u043e\u0432\u043e\u0433\u0438\u0440\u0435\u0435\u0432\u043e
p1645
aa(lp1646
Vyellow
p1647
aV\u041d\u043e\u0432\u043e\u0433\u0438\u0440\u0435\u0435\u0432\u043e
p1648
aa(lp1649
Vyellow
p1650
aV\u041d\u043e\u0432\u043e\u0433\u0438\u0440\u0435\u0435\u0432\u043e
p1651
aa(lp1652
Vyellow
p1653
aV\u041d\u043e\u0432\u043e\u0433\u0438\u0440\u0435\u0435\u0432\u043e
p1654
aa(lp1655
Vyellow
p1656
aV\u0428\u043e\u0441\u0441\u0435 \u042d\u043d\u0442\u0443\u0437\u0438\u0430\u0441\u0442\u043e\u0432
p1657
aa(lp1658
Vyellow
p1659
aV\u0428\u043e\u0441\u0441\u0435 \u042d\u043d\u0442\u0443\u0437\u0438\u0430\u0441\u0442\u043e\u0432
p1660
aa(lp1661
Vyellow
p1662
aV\u0428\u043e\u0441\u0441\u0435 \u042d\u043d\u0442\u0443\u0437\u0438\u0430\u0441\u0442\u043e\u0432
p1663
aa(lp1664
Vyellow
p1665
aV\u0428\u043e\u0441\u0441\u0435 \u042d\u043d\u0442\u0443\u0437\u0438\u0430\u0441\u0442\u043e\u0432
p1666
aa(lp1667
Vviolet
p1668
aV\u0420\u044f\u0437\u0430\u043d\u0441\u043a\u0438\u0439 \u043f\u0440\u043e\u0441\u043f\u0435\u043a\u0442
p1669
aa(lp1670
Vviolet
p1671
aV\u0412\u044b\u0445\u0438\u043d\u043e
p1672
aa(lp1673
Vviolet
p1674
aV\u0412\u044b\u0445\u0438\u043d\u043e
p1675
aa(lp1676
g158
aV\u0421\u043e\u043a\u043e\u043b\u0438\u043d\u0430\u044f \u0413\u043e\u0440\u0430
p1677
aa(lp1678
Vyellow
p1679
aV\u041f\u0435\u0440\u043e\u0432\u043e
p1680
aa(lp1681
Vyellow
p1682
aV\u041f\u0435\u0440\u043e\u0432\u043e
p1683
aa(lp1684
Vyellow
p1685
aV\u041f\u0435\u0440\u043e\u0432\u043e
p1686
aa(lp1687
Vyellow
p1688
aV\u041f\u0435\u0440\u043e\u0432\u043e
p1689
aa(lp1690
Vyellow
p1691
aV\u041f\u0435\u0440\u043e\u0432\u043e
p1692
aa(lp1693
g158
aV\u0421\u043e\u043a\u043e\u043b\u0438\u043d\u0430\u044f \u0413\u043e\u0440\u0430
p1694
aa(lp1695
Vviolet
p1696
aV\u0420\u044f\u0437\u0430\u043d\u0441\u043a\u0438\u0439 \u043f\u0440\u043e\u0441\u043f\u0435\u043a\u0442
p1697
aa(lp1698
Vyellow
p1699
aV\u041f\u0435\u0440\u043e\u0432\u043e
p1700
aa(lp1701
Vyellow
p1702
aV\u041f\u0435\u0440\u043e\u0432\u043e
p1703
aa(lp1704
g158
aV\u0428\u043e\u0441\u0441\u0435 \u042d\u043d\u0442\u0443\u0437\u0438\u0430\u0441\u0442\u043e\u0432
p1705
aa(lp1706
Vviolet
p1707
aV\u0412\u044b\u0445\u0438\u043d\u043e
p1708
aa(lp1709
Vviolet
p1710
aV\u0412\u044b\u0445\u0438\u043d\u043e
p1711
aa(lp1712
Vviolet
p1713
aV\u0412\u044b\u0445\u0438\u043d\u043e
p1714
aa(lp1715
Vblue
p1716
aV\u0421\u0442\u0440\u043e\u0433\u0438\u043d\u043e
p1717
aa(lp1718
Vblue
p1719
aV\u0421\u0442\u0440\u043e\u0433\u0438\u043d\u043e
p1720
aa(lp1721
Vblue
p1722
aV\u0421\u0442\u0440\u043e\u0433\u0438\u043d\u043e
p1723
aa(lp1724
Vblue
p1725
aV\u041c\u044f\u043a\u0438\u043d\u0438\u043d\u043e
p1726
aa(lp1727
Vblue
p1728
aV\u0421\u0442\u0440\u043e\u0433\u0438\u043d\u043e
p1729
aa(lp1730
Vblue
p1731
aV\u0421\u0442\u0440\u043e\u0433\u0438\u043d\u043e
p1732
aa(lp1733
Vblue
p1734
aV\u0421\u0442\u0440\u043e\u0433\u0438\u043d\u043e
p1735
aa(lp1736
Vblue
p1737
aV\u0421\u0442\u0440\u043e\u0433\u0438\u043d\u043e
p1738
aa(lp1739
Vblue
p1740
aV\u0421\u0442\u0440\u043e\u0433\u0438\u043d\u043e
p1741
aa(lp1742
Vviolet
p1743
aV\u0422\u0443\u0448\u0438\u043d\u0441\u043a\u0430\u044f
p1744
aa(lp1745
Vviolet
p1746
aV\u0422\u0443\u0448\u0438\u043d\u0441\u043a\u0430\u044f
p1747
aa(lp1748
Vviolet
p1749
aV\u0422\u0443\u0448\u0438\u043d\u0441\u043a\u0430\u044f
p1750
aa(lp1751
Vviolet
p1752
aV\u0422\u0443\u0448\u0438\u043d\u0441\u043a\u0430\u044f
p1753
aa(lp1754
Vblue
p1755
aV\u0412\u043e\u043b\u043e\u043a\u043e\u043b\u0430\u043c\u0441\u043a\u0430\u044f
p1756
aa(lp1757
Vblue
p1758
aV\u0412\u043e\u043b\u043e\u043a\u043e\u043b\u0430\u043c\u0441\u043a\u0430\u044f
p1759
aa(lp1760
Vviolet
p1761
aV\u0422\u0443\u0448\u0438\u043d\u0441\u043a\u0430\u044f
p1762
aa(lp1763
Vviolet
p1764
aV\u0422\u0443\u0448\u0438\u043d\u0441\u043a\u0430\u044f
p1765
aa(lp1766
Vviolet
p1767
aV\u0421\u043f\u0430\u0440\u0442\u0430\u043a
p1768
aa(lp1769
Vviolet
p1770
aV\u0421\u043f\u0430\u0440\u0442\u0430\u043a
p1771
aa(lp1772
Vviolet
p1773
aV\u0421\u043f\u0430\u0440\u0442\u0430\u043a
p1774
aa(lp1775
Vviolet
p1776
aV\u0421\u043f\u0430\u0440\u0442\u0430\u043a
p1777
aa(lp1778
Vviolet
p1779
aV\u0421\u043f\u0430\u0440\u0442\u0430\u043a
p1780
aa(lp1781
Vblue
p1782
aV\u041c\u044f\u043a\u0438\u043d\u0438\u043d\u043e
p1783
aa(lp1784
Vdarkgreen
p1785
aV\u0412\u043e\u0439\u043a\u043e\u0432\u0441\u043a\u0430\u044f
p1786
aa(lp1787
Vdarkgreen
p1788
aV\u0412\u043e\u0439\u043a\u043e\u0432\u0441\u043a\u0430\u044f
p1789
aa(lp1790
Vdarkgreen
p1791
aV\u0412\u043e\u0439\u043a\u043e\u0432\u0441\u043a\u0430\u044f
p1792
aa(lp1793
Vdarkgreen
p1794
aV\u0412\u043e\u0439\u043a\u043e\u0432\u0441\u043a\u0430\u044f
p1795
aa(lp1796
Vviolet
p1797
aV\u0429\u0443\u043a\u0438\u043d\u0441\u043a\u0430\u044f
p1798
aa(lp1799
Vviolet
p1800
aV\u0429\u0443\u043a\u0438\u043d\u0441\u043a\u0430\u044f
p1801
aa(lp1802
Vviolet
p1803
aV\u0429\u0443\u043a\u0438\u043d\u0441\u043a\u0430\u044f
p1804
aa(lp1805
Vdarkgreen
p1806
aV\u0410\u044d\u0440\u043e\u043f\u043e\u0440\u0442
p1807
aa(lp1808
Vdarkgreen
p1809
aV\u0410\u044d\u0440\u043e\u043f\u043e\u0440\u0442
p1810
aa(lp1811
Vdarkgreen
p1812
aV\u0421\u043e\u043a\u043e\u043b
p1813
aa(lp1814
Vdarkgreen
p1815
aV\u0421\u043e\u043a\u043e\u043b
p1816
aa(lp1817
Vdarkgreen
p1818
aV\u0412\u043e\u0434\u043d\u044b\u0439 \u0441\u0442\u0430\u0434\u0438\u043e\u043d
p1819
aa(lp1820
Vdarkgreen
p1821
aV\u0410\u044d\u0440\u043e\u043f\u043e\u0440\u0442
p1822
aa(lp1823
Vdarkgreen
p1824
aV\u0421\u043e\u043a\u043e\u043b
p1825
aa(lp1826
Vdarkgreen
p1827
aV\u0421\u043e\u043a\u043e\u043b
p1828
aa(lp1829
Vviolet
p1830
aV\u041f\u043e\u043b\u0435\u0436\u0430\u0435\u0432\u0441\u043a\u0430\u044f
p1831
aa(lp1832
Vviolet
p1833
aV\u041f\u043e\u043b\u0435\u0436\u0430\u0435\u0432\u0441\u043a\u0430\u044f
p1834
aa(lp1835
Vviolet
p1836
aV\u041f\u043e\u043b\u0435\u0436\u0430\u0435\u0432\u0441\u043a\u0430\u044f
p1837
aa(lp1838
Vviolet
p1839
aV\u041f\u043e\u043b\u0435\u0436\u0430\u0435\u0432\u0441\u043a\u0430\u044f
p1840
aa(lp1841
Vdarkgreen
p1842
aV\u0412\u043e\u0439\u043a\u043e\u0432\u0441\u043a\u0430\u044f
p1843
aa(lp1844
Vdarkgreen
p1845
aV\u0412\u043e\u0439\u043a\u043e\u0432\u0441\u043a\u0430\u044f
p1846
aa(lp1847
Vdarkgreen
p1848
aV\u0412\u043e\u0439\u043a\u043e\u0432\u0441\u043a\u0430\u044f
p1849
aa(lp1850
Vdarkgreen
p1851
aV\u0410\u044d\u0440\u043e\u043f\u043e\u0440\u0442
p1852
aa(lp1853
Vviolet
p1854
aV\u041e\u043a\u0442\u044f\u0431\u0440\u044c\u0441\u043a\u043e\u0435 \u041f\u043e\u043b\u0435
p1855
aa(lp1856
Vviolet
p1857
aV\u041e\u043a\u0442\u044f\u0431\u0440\u044c\u0441\u043a\u043e\u0435 \u041f\u043e\u043b\u0435
p1858
aa(lp1859
Vviolet
p1860
aV\u041e\u043a\u0442\u044f\u0431\u0440\u044c\u0441\u043a\u043e\u0435 \u041f\u043e\u043b\u0435
p1861
aa(lp1862
Vviolet
p1863
aV\u041e\u043a\u0442\u044f\u0431\u0440\u044c\u0441\u043a\u043e\u0435 \u041f\u043e\u043b\u0435
p1864
aa(lp1865
Vviolet
p1866
aV\u041e\u043a\u0442\u044f\u0431\u0440\u044c\u0441\u043a\u043e\u0435 \u041f\u043e\u043b\u0435
p1867
aa(lp1868
Vviolet
p1869
aV\u041e\u043a\u0442\u044f\u0431\u0440\u044c\u0441\u043a\u043e\u0435 \u041f\u043e\u043b\u0435
p1870
aa(lp1871
Vviolet
p1872
aV\u041e\u043a\u0442\u044f\u0431\u0440\u044c\u0441\u043a\u043e\u0435 \u041f\u043e\u043b\u0435
p1873
aa(lp1874
Vviolet
p1875
aV\u041e\u043a\u0442\u044f\u0431\u0440\u044c\u0441\u043a\u043e\u0435 \u041f\u043e\u043b\u0435
p1876
aa(lp1877
Vdarkgreen
p1878
aV\u0412\u043e\u0434\u043d\u044b\u0439 \u0441\u0442\u0430\u0434\u0438\u043e\u043d
p1879
aa(lp1880
g158
aV\u0425\u043e\u0440\u043e\u0448\u0451\u0432\u043e
p1881
aa(lp1882
g158
aV\u0411\u0430\u043b\u0442\u0438\u0439\u0441\u043a\u0430\u044f
p1883
aa(lp1884
g158
aV\u041a\u043e\u043f\u0442\u0435\u0432\u043e
p1885
aa(lp1886
g158
aV\u041a\u043e\u043f\u0442\u0435\u0432\u043e
p1887
aa(lp1888
g158
aV\u041f\u0430\u043d\u0444\u0438\u043b\u043e\u0432\u0441\u043a\u0430\u044f
p1889
aa(lp1890
g158
aV\u041f\u0430\u043d\u0444\u0438\u043b\u043e\u0432\u0441\u043a\u0430\u044f
p1891
aa(lp1892
g158
aV\u0417\u043e\u0440\u0433\u0435
p1893
aa(lp1894
g158
aV\u0417\u043e\u0440\u0433\u0435
p1895
aa(lp1896
g158
aV\u0421\u0442\u0440\u0435\u0448\u043d\u0435\u0432\u043e
p1897
aa(lp1898
g158
aV\u0411\u0430\u043b\u0442\u0438\u0439\u0441\u043a\u0430\u044f
p1899
aa(lp1900
Vviolet
p1901
aV\u0429\u0443\u043a\u0438\u043d\u0441\u043a\u0430\u044f
p1902
aa(lp1903
g158
aV\u0421\u0442\u0440\u0435\u0448\u043d\u0435\u0432\u043e
p1904
aa(lp1905
Vbrown
p1906
aV\u041d\u043e\u0432\u043e\u0441\u043b\u043e\u0431\u043e\u0434\u0441\u043a\u0430\u044f
p1907
aa(lp1908
Vbrown
p1909
aV\u041f\u0440\u043e\u0441\u043f\u0435\u043a\u0442 \u041c\u0438\u0440\u0430
p1910
aa(lp1911
Vorange
p1912
aV\u041f\u0440\u043e\u0441\u043f\u0435\u043a\u0442 \u041c\u0438\u0440\u0430
p1913
aa(lp1914
Vdarkgreen
p1915
aV\u0411\u0435\u043b\u043e\u0440\u0443\u0441\u0441\u043a\u0430\u044f
p1916
aa(lp1917
Vgray
p1918
aV\u0421\u0430\u0432\u0451\u043b\u043e\u0432\u0441\u043a\u0430\u044f
p1919
aa(lp1920
Vdarkgreen
p1921
aV\u0414\u0438\u043d\u0430\u043c\u043e
p1922
aa(lp1923
Vdarkgreen
p1924
aV\u0414\u0438\u043d\u0430\u043c\u043e
p1925
aa(lp1926
Vgray;lightgreen
p1927
aV\u041f\u0435\u0442\u0440\u043e\u0432\u0441\u043a\u043e-\u0420\u0430\u0437\u0443\u043c\u043e\u0432\u0441\u043a\u0430\u044f
p1928
aa(lp1929
Vgray
p1930
aV\u0421\u0430\u0432\u0451\u043b\u043e\u0432\u0441\u043a\u0430\u044f
p1931
aa(lp1932
Vgray;lightgreen
p1933
aV\u041f\u0435\u0442\u0440\u043e\u0432\u0441\u043a\u043e-\u0420\u0430\u0437\u0443\u043c\u043e\u0432\u0441\u043a\u0430\u044f
p1934
aa(lp1935
Vgray;lightgreen
p1936
aV\u041f\u0435\u0442\u0440\u043e\u0432\u0441\u043a\u043e-\u0420\u0430\u0437\u0443\u043c\u043e\u0432\u0441\u043a\u0430\u044f
p1937
aa(lp1938
Vorange
p1939
aV\u0412\u0414\u041d\u0425
p1940
aa(lp1941
Vorange
p1942
aV\u0412\u0414\u041d\u0425
p1943
aa(lp1944
Vorange
p1945
aV\u0412\u0414\u041d\u0425
p1946
aa(lp1947
Vorange
p1948
aV\u0412\u0414\u041d\u0425
p1949
aa(lp1950
Vgray
p1951
aV\u0421\u0430\u0432\u0451\u043b\u043e\u0432\u0441\u043a\u0430\u044f
p1952
aa(lp1953
Vgray
p1954
aV\u0421\u0430\u0432\u0451\u043b\u043e\u0432\u0441\u043a\u0430\u044f
p1955
aa(lp1956
Vdarkgreen
p1957
aV\u0411\u0435\u043b\u043e\u0440\u0443\u0441\u0441\u043a\u0430\u044f
p1958
aa(lp1959
Vbrown
p1960
aV\u0411\u0435\u043b\u043e\u0440\u0443\u0441\u0441\u043a\u0430\u044f
p1961
aa(lp1962
Vdarkgreen
p1963
aV\u0411\u0435\u043b\u043e\u0440\u0443\u0441\u0441\u043a\u0430\u044f
p1964
aa(lp1965
Vdarkgreen
p1966
aV\u0411\u0435\u043b\u043e\u0440\u0443\u0441\u0441\u043a\u0430\u044f
p1967
aa(lp1968
Vgray
p1969
aV\u0414\u043c\u0438\u0442\u0440\u043e\u0432\u0441\u043a\u0430\u044f
p1970
aa(lp1971
Vgray
p1972
aV\u0414\u043c\u0438\u0442\u0440\u043e\u0432\u0441\u043a\u0430\u044f
p1973
aa(lp1974
Vlightgreen
p1975
aV\u041c\u0430\u0440\u044c\u0438\u043d\u0430 \u0420\u043e\u0449\u0430
p1976
aa(lp1977
Vlightgreen
p1978
aV\u041c\u0430\u0440\u044c\u0438\u043d\u0430 \u0420\u043e\u0449\u0430
p1979
aa(lp1980
Vlightgreen
p1981
aV\u041c\u0430\u0440\u044c\u0438\u043d\u0430 \u0420\u043e\u0449\u0430
p1982
aa(lp1983
Vlightgreen
p1984
aV\u041c\u0430\u0440\u044c\u0438\u043d\u0430 \u0420\u043e\u0449\u0430
p1985
aa(lp1986
g158
aV\u0412\u0414\u041d\u0425
p1987
aa(lp1988
Vorange
p1989
aV\u0420\u0438\u0436\u0441\u043a\u0430\u044f
p1990
aa(lp1991
Vorange
p1992
aV\u0410\u043b\u0435\u043a\u0441\u0435\u0435\u0432\u0441\u043a\u0430\u044f
p1993
aa(lp1994
Vbrown
p1995
aV\u0411\u0435\u043b\u043e\u0440\u0443\u0441\u0441\u043a\u0430\u044f
p1996
aa(lp1997
Vlightgreen
p1998
aV\u0414\u043e\u0441\u0442\u043e\u0435\u0432\u0441\u043a\u0430\u044f
p1999
aa(lp2000
Vgray
p2001
aV\u0414\u043c\u0438\u0442\u0440\u043e\u0432\u0441\u043a\u0430\u044f
p2002
aa(lp2003
Vgray
p2004
aV\u0414\u043c\u0438\u0442\u0440\u043e\u0432\u0441\u043a\u0430\u044f
p2005
aa(lp2006
Vgray
p2007
aV\u0422\u0438\u043c\u0438\u0440\u044f\u0437\u0435\u0432\u0441\u043a\u0430\u044f
p2008
aa(lp2009
Vgray
p2010
aV\u0422\u0438\u043c\u0438\u0440\u044f\u0437\u0435\u0432\u0441\u043a\u0430\u044f
p2011
aa(lp2012
Vgray
p2013
aV\u0422\u0438\u043c\u0438\u0440\u044f\u0437\u0435\u0432\u0441\u043a\u0430\u044f
p2014
aa(lp2015
Vgray
p2016
aV\u0422\u0438\u043c\u0438\u0440\u044f\u0437\u0435\u0432\u0441\u043a\u0430\u044f
p2017
aa(lp2018
Vgray
p2019
aV\u0422\u0438\u043c\u0438\u0440\u044f\u0437\u0435\u0432\u0441\u043a\u0430\u044f
p2020
aa(lp2021
Vgray
p2022
aV\u0422\u0438\u043c\u0438\u0440\u044f\u0437\u0435\u0432\u0441\u043a\u0430\u044f
p2023
aa(lp2024
Vlightgreen
p2025
aV\u0414\u043e\u0441\u0442\u043e\u0435\u0432\u0441\u043a\u0430\u044f
p2026
aa(lp2027
Vlightgreen
p2028
aV\u0414\u043e\u0441\u0442\u043e\u0435\u0432\u0441\u043a\u0430\u044f
p2029
aa(lp2030
Vgray;lightgreen
p2031
aV\u041f\u0435\u0442\u0440\u043e\u0432\u0441\u043a\u043e-\u0420\u0430\u0437\u0443\u043c\u043e\u0432\u0441\u043a\u0430\u044f
p2032
aa(lp2033
Vgray;lightgreen
p2034
aV\u041f\u0435\u0442\u0440\u043e\u0432\u0441\u043a\u043e-\u0420\u0430\u0437\u0443\u043c\u043e\u0432\u0441\u043a\u0430\u044f
p2035
aa(lp2036
Vgray
p2037
aV\u0421\u0430\u0432\u0451\u043b\u043e\u0432\u0441\u043a\u0430\u044f
p2038
aa(lp2039
Vgray
p2040
aV\u041c\u0435\u043d\u0434\u0435\u043b\u0435\u0435\u0432\u0441\u043a\u0430\u044f
p2041
aa(lp2042
Vgray
p2043
aV\u041c\u0435\u043d\u0434\u0435\u043b\u0435\u0435\u0432\u0441\u043a\u0430\u044f
p2044
aa(lp2045
Vgray
p2046
aV\u041c\u0435\u043d\u0434\u0435\u043b\u0435\u0435\u0432\u0441\u043a\u0430\u044f
p2047
aa(lp2048
Vlightgreen
p2049
aV\u041c\u0430\u0440\u044c\u0438\u043d\u0430 \u0420\u043e\u0449\u0430
p2050
aa(lp2051
Vgray
p2052
aV\u0422\u0438\u043c\u0438\u0440\u044f\u0437\u0435\u0432\u0441\u043a\u0430\u044f
p2053
aa(lp2054
Vlightgreen
p2055
aV\u0411\u0443\u0442\u044b\u0440\u0441\u043a\u0430\u044f
p2056
aa(lp2057
Vlightgreen
p2058
aV\u0411\u0443\u0442\u044b\u0440\u0441\u043a\u0430\u044f
p2059
aa(lp2060
Vlightgreen
p2061
aV\u0411\u0443\u0442\u044b\u0440\u0441\u043a\u0430\u044f
p2062
aa(lp2063
Vlightgreen
p2064
aV\u0411\u0443\u0442\u044b\u0440\u0441\u043a\u0430\u044f
p2065
aa(lp2066
Vlightgreen
p2067
aV\u0424\u043e\u043d\u0432\u0438\u0437\u0438\u043d\u0441\u043a\u0430\u044f
p2068
aa(lp2069
Vlightgreen
p2070
aV\u0424\u043e\u043d\u0432\u0438\u0437\u0438\u043d\u0441\u043a\u0430\u044f
p2071
aa(lp2072
Vlightgreen
p2073
aV\u041f\u0435\u0442\u0440\u043e\u0432\u0441\u043a\u043e-\u0420\u0430\u0437\u0443\u043c\u043e\u0432\u0441\u043a\u0430\u044f
p2074
aa(lp2075
Vlightgreen
p2076
aV\u041f\u0435\u0442\u0440\u043e\u0432\u0441\u043a\u043e-\u0420\u0430\u0437\u0443\u043c\u043e\u0432\u0441\u043a\u0430\u044f
p2077
aa(lp2078
Vlightgreen
p2079
aV\u041f\u0435\u0442\u0440\u043e\u0432\u0441\u043a\u043e-\u0420\u0430\u0437\u0443\u043c\u043e\u0432\u0441\u043a\u0430\u044f
p2080
aa(lp2081
Vlightgreen
p2082
aV\u041f\u0435\u0442\u0440\u043e\u0432\u0441\u043a\u043e-\u0420\u0430\u0437\u0443\u043c\u043e\u0432\u0441\u043a\u0430\u044f
p2083
aa(lp2084
Vlightgreen
p2085
aV\u0424\u043e\u043d\u0432\u0438\u0437\u0438\u043d\u0441\u043a\u0430\u044f
p2086
aa(lp2087
Vlightgreen
p2088
aV\u0424\u043e\u043d\u0432\u0438\u0437\u0438\u043d\u0441\u043a\u0430\u044f
p2089
aa(lp2090
Vred
p2091
aV\u0411\u0443\u043b\u044c\u0432\u0430\u0440 \u0420\u043e\u043a\u043e\u0441\u0441\u043e\u0432\u0441\u043a\u043e\u0433\u043e
p2092
aa(lp2093
Vred
p2094
aV\u0411\u0443\u043b\u044c\u0432\u0430\u0440 \u0420\u043e\u043a\u043e\u0441\u0441\u043e\u0432\u0441\u043a\u043e\u0433\u043e
p2095
aa(lp2096
Vred
p2097
aV\u0411\u0443\u043b\u044c\u0432\u0430\u0440 \u0420\u043e\u043a\u043e\u0441\u0441\u043e\u0432\u0441\u043a\u043e\u0433\u043e
p2098
aa(lp2099
Vred
p2100
aV\u0421\u043e\u043a\u043e\u043b\u044c\u043d\u0438\u043a\u0438
p2101
aa(lp2102
Vred
p2103
aV\u0427\u0435\u0440\u043a\u0438\u0437\u043e\u0432\u0441\u043a\u0430\u044f
p2104
aa(lp2105
Vred
p2106
aV\u041f\u0440\u0435\u043e\u0431\u0440\u0430\u0436\u0435\u043d\u0441\u043a\u0430\u044f \u043f\u043b\u043e\u0449\u0430\u0434\u044c
p2107
aa(lp2108
Vred
p2109
aV\u041f\u0440\u0435\u043e\u0431\u0440\u0430\u0436\u0435\u043d\u0441\u043a\u0430\u044f \u043f\u043b\u043e\u0449\u0430\u0434\u044c
p2110
aa(lp2111
Vred
p2112
aV\u041f\u0440\u0435\u043e\u0431\u0440\u0430\u0436\u0435\u043d\u0441\u043a\u0430\u044f \u043f\u043b\u043e\u0449\u0430\u0434\u044c
p2113
aa(lp2114
Vred
p2115
aV\u041f\u0440\u0435\u043e\u0431\u0440\u0430\u0436\u0435\u043d\u0441\u043a\u0430\u044f \u043f\u043b\u043e\u0449\u0430\u0434\u044c
p2116
aa(lp2117
Vred
p2118
aV\u041f\u0440\u0435\u043e\u0431\u0440\u0430\u0436\u0435\u043d\u0441\u043a\u0430\u044f \u043f\u043b\u043e\u0449\u0430\u0434\u044c
p2119
aa(lp2120
Vred
p2121
aV\u041f\u0440\u0435\u043e\u0431\u0440\u0430\u0436\u0435\u043d\u0441\u043a\u0430\u044f \u043f\u043b\u043e\u0449\u0430\u0434\u044c
p2122
aa(lp2123
Vred
p2124
aV\u041f\u0440\u0435\u043e\u0431\u0440\u0430\u0436\u0435\u043d\u0441\u043a\u0430\u044f \u043f\u043b\u043e\u0449\u0430\u0434\u044c
p2125
aa(lp2126
Vred
p2127
aV\u041f\u0440\u0435\u043e\u0431\u0440\u0430\u0436\u0435\u043d\u0441\u043a\u0430\u044f \u043f\u043b\u043e\u0449\u0430\u0434\u044c
p2128
aa(lp2129
Vred
p2130
aV\u041f\u0440\u0435\u043e\u0431\u0440\u0430\u0436\u0435\u043d\u0441\u043a\u0430\u044f \u043f\u043b\u043e\u0449\u0430\u0434\u044c
p2131
aa(lp2132
Vred
p2133
aV\u041f\u0440\u0435\u043e\u0431\u0440\u0430\u0436\u0435\u043d\u0441\u043a\u0430\u044f \u043f\u043b\u043e\u0449\u0430\u0434\u044c
p2134
aa(lp2135
Vred
p2136
aV\u041f\u0440\u0435\u043e\u0431\u0440\u0430\u0436\u0435\u043d\u0441\u043a\u0430\u044f \u043f\u043b\u043e\u0449\u0430\u0434\u044c
p2137
aa(lp2138
Vred
p2139
aV\u0411\u0443\u043b\u044c\u0432\u0430\u0440 \u0420\u043e\u043a\u043e\u0441\u0441\u043e\u0432\u0441\u043a\u043e\u0433\u043e
p2140
aa(lp2141
Vred
p2142
aV\u0411\u0443\u043b\u044c\u0432\u0430\u0440 \u0420\u043e\u043a\u043e\u0441\u0441\u043e\u0432\u0441\u043a\u043e\u0433\u043e
p2143
aa(lp2144
Vred
p2145
aV\u0427\u0435\u0440\u043a\u0438\u0437\u043e\u0432\u0441\u043a\u0430\u044f
p2146
aa(lp2147
Vred
p2148
aV\u041a\u043e\u043c\u0441\u043e\u043c\u043e\u043b\u044c\u0441\u043a\u0430\u044f
p2149
aa(lp2150
Vbrown
p2151
aV\u041a\u043e\u043c\u0441\u043e\u043c\u043e\u043b\u044c\u0441\u043a\u0430\u044f
p2152
aa(lp2153
Vred
p2154
aV\u041a\u043e\u043c\u0441\u043e\u043c\u043e\u043b\u044c\u0441\u043a\u0430\u044f
p2155
aa(lp2156
Vred
p2157
aV\u041a\u043e\u043c\u0441\u043e\u043c\u043e\u043b\u044c\u0441\u043a\u0430\u044f
p2158
aa(lp2159
Vred
p2160
aV\u041a\u043e\u043c\u0441\u043e\u043c\u043e\u043b\u044c\u0441\u043a\u0430\u044f
p2161
aa(lp2162
Vred
p2163
aV\u041a\u043e\u043c\u0441\u043e\u043c\u043e\u043b\u044c\u0441\u043a\u0430\u044f
p2164
aa(lp2165
g158
aV\u041a\u043e\u043c\u0441\u043e\u043c\u043e\u043b\u044c\u0441\u043a\u0430\u044f
p2166
aa(lp2167
Vbrown
p2168
aV\u041a\u043e\u043c\u0441\u043e\u043c\u043e\u043b\u044c\u0441\u043a\u0430\u044f
p2169
aa(lp2170
Vbrown
p2171
aV\u041a\u043e\u043c\u0441\u043e\u043c\u043e\u043b\u044c\u0441\u043a\u0430\u044f
p2172
aa(lp2173
Vred
p2174
aV\u041f\u0440\u0435\u043e\u0431\u0440\u0430\u0436\u0435\u043d\u0441\u043a\u0430\u044f \u043f\u043b\u043e\u0449\u0430\u0434\u044c
p2175
aa(lp2176
Vblue
p2177
aV\u0421\u0435\u043c\u0451\u043d\u043e\u0432\u0441\u043a\u0430\u044f
p2178
aa(lp2179
Vblue
p2180
aV\u042d\u043b\u0435\u043a\u0442\u0440\u043e\u0437\u0430\u0432\u043e\u0434\u0441\u043a\u0430\u044f
p2181
aa(lp2182
Vred
p2183
aV\u041f\u0440\u0435\u043e\u0431\u0440\u0430\u0436\u0435\u043d\u0441\u043a\u0430\u044f \u043f\u043b\u043e\u0449\u0430\u0434\u044c
p2184
aa(lp2185
g158
aV\u0411\u0435\u043b\u043e\u043a\u0430\u043c\u0435\u043d\u043d\u0430\u044f
p2186
aa(lp2187
g158
aV\u0411\u0435\u043b\u043e\u043a\u0430\u043c\u0435\u043d\u043d\u0430\u044f
p2188
aa(lp2189
g158
aV\u0420\u043e\u0441\u0442\u043e\u043a\u0438\u043d\u043e
p2190
aa(lp2191
g158
aV\u0420\u043e\u0441\u0442\u043e\u043a\u0438\u043d\u043e
p2192
aa(lp2193
g158
aV\u0418\u0437\u043c\u0430\u0439\u043b\u043e\u0432\u043e
p2194
aa(lp2195
g158
aV\u0411\u0443\u043b\u044c\u0432\u0430\u0440 \u0420\u043e\u043a\u043e\u0441\u043e\u0432\u0441\u043a\u043e\u0433\u043e
p2196
aa(lp2197
g158
aV\u0418\u0437\u043c\u0430\u0439\u043b\u043e\u0432\u043e
p2198
aa(lp2199
g158
aV\u041b\u043e\u043a\u043e\u043c\u043e\u0442\u0438\u0432
p2200
aa(lp2201
g158
aV\u041b\u043e\u043a\u043e\u043c\u043e\u0442\u0438\u0432
p2202
aa(lp2203
g158
aV\u0418\u0437\u043c\u0430\u0439\u043b\u043e\u0432\u043e
p2204
aa(lp2205
Vred
p2206
aV\u041a\u0440\u0430\u0441\u043d\u043e\u0441\u0435\u043b\u044c\u0441\u043a\u0430\u044f
p2207
aa(lp2208
Vred
p2209
aV\u0421\u043e\u043a\u043e\u043b\u044c\u043d\u0438\u043a\u0438
p2210
aa(lp2211
Vred
p2212
aV\u0427\u0435\u0440\u043a\u0438\u0437\u043e\u0432\u0441\u043a\u0430\u044f
p2213
aa(lp2214
Vblue
p2215
aV\u041f\u0435\u0440\u0432\u043e\u043c\u0430\u0439\u0441\u043a\u0430\u044f
p2216
aa(lp2217
Vblue
p2218
aV\u041f\u0435\u0440\u0432\u043e\u043c\u0430\u0439\u0441\u043a\u0430\u044f
p2219
aa(lp2220
Vblue
p2221
aV\u041f\u0435\u0440\u0432\u043e\u043c\u0430\u0439\u0441\u043a\u0430\u044f
p2222
aa(lp2223
Vblue
p2224
aV\u041f\u0435\u0440\u0432\u043e\u043c\u0430\u0439\u0441\u043a\u0430\u044f
p2225
aa(lp2226
Vblue
p2227
aV\u0429\u0451\u043b\u043a\u043e\u0432\u0441\u043a\u0430\u044f
p2228
aa(lp2229
Vblue
p2230
aV\u0429\u0451\u043b\u043a\u043e\u0432\u0441\u043a\u0430\u044f
p2231
aa(lp2232
Vblue
p2233
aV\u041f\u0430\u0440\u0442\u0438\u0437\u0430\u043d\u0441\u043a\u0430\u044f
p2234
aa(lp2235
g158
aV\u0418\u0437\u043c\u0430\u0439\u043b\u043e\u0432\u0441\u043a\u0430\u044f
p2236
aa(lp2237
Vblue
p2238
aV\u0418\u0437\u043c\u0430\u0439\u043b\u043e\u0432\u0441\u043a\u0430\u044f
p2239
aa(lp2240
Vblue
p2241
aV\u0418\u0437\u043c\u0430\u0439\u043b\u043e\u0432\u0441\u043a\u0430\u044f
p2242
aa(lp2243
Vblue
p2244
aV\u0418\u0437\u043c\u0430\u0439\u043b\u043e\u0432\u0441\u043a\u0430\u044f
p2245
aa(lp2246
Vblue
p2247
aV\u0418\u0437\u043c\u0430\u0439\u043b\u043e\u0432\u0441\u043a\u0430\u044f
p2248
aa(lp2249
Vblue
p2250
aV\u0429\u0451\u043b\u043a\u043e\u0432\u0441\u043a\u0430\u044f
p2251
aa(lp2252
Vblue
p2253
aV\u0429\u0451\u043b\u043a\u043e\u0432\u0441\u043a\u0430\u044f
p2254
aa(lp2255
Vblue
p2256
aV\u0429\u0451\u043b\u043a\u043e\u0432\u0441\u043a\u0430\u044f
p2257
aa(lp2258
Vblue
p2259
aV\u0429\u0451\u043b\u043a\u043e\u0432\u0441\u043a\u0430\u044f
p2260
aa(lp2261
Vviolet
p2262
aV\u0421\u0445\u043e\u0434\u043d\u0435\u043d\u0441\u043a\u0430\u044f
p2263
aa(lp2264
Vviolet
p2265
aV\u0421\u0445\u043e\u0434\u043d\u0435\u043d\u0441\u043a\u0430\u044f
p2266
aa(lp2267
Vviolet
p2268
aV\u0421\u0445\u043e\u0434\u043d\u0435\u043d\u0441\u043a\u0430\u044f
p2269
aa(lp2270
Vviolet
p2271
aV\u0421\u0445\u043e\u0434\u043d\u0435\u043d\u0441\u043a\u0430\u044f
p2272
aa(lp2273
Vviolet
p2274
aV\u0421\u0445\u043e\u0434\u043d\u0435\u043d\u0441\u043a\u0430\u044f
p2275
aa(lp2276
Vviolet
p2277
aV\u0421\u0445\u043e\u0434\u043d\u0435\u043d\u0441\u043a\u0430\u044f
p2278
aa(lp2279
Vviolet
p2280
aV\u0421\u0445\u043e\u0434\u043d\u0435\u043d\u0441\u043a\u0430\u044f
p2281
aa(lp2282
Vviolet
p2283
aV\u0421\u0445\u043e\u0434\u043d\u0435\u043d\u0441\u043a\u0430\u044f
p2284
aa(lp2285
Vviolet
p2286
aV\u041f\u043b\u0430\u043d\u0435\u0440\u043d\u0430\u044f
p2287
aa(lp2288
Vviolet
p2289
aV\u041f\u043b\u0430\u043d\u0435\u0440\u043d\u0430\u044f
p2290
aa(lp2291
Vblue
p2292
aV\u041c\u0438\u0442\u0438\u043d\u043e
p2293
aa(lp2294
Vblue
p2295
aV\u041c\u0438\u0442\u0438\u043d\u043e
p2296
aa(lp2297
Vblue
p2298
aV\u041c\u0438\u0442\u0438\u043d\u043e
p2299
aa(lp2300
Vviolet
p2301
aV\u0421\u0445\u043e\u0434\u043d\u0435\u043d\u0441\u043a\u0430\u044f
p2302
aa(lp2303
Vdarkgreen
p2304
aV\u0420\u0435\u0447\u043d\u043e\u0439 \u0432\u043e\u043a\u0437\u0430\u043b
p2305
aa(lp2306
Vdarkgreen
p2307
aV\u0420\u0435\u0447\u043d\u043e\u0439 \u0432\u043e\u043a\u0437\u0430\u043b
p2308
aa(lp2309
g158
aV\u041b\u0438\u0445\u043e\u0431\u043e\u0440\u044b
p2310
aa(lp2311
g158
aV\u041b\u0438\u0445\u043e\u0431\u043e\u0440\u044b
p2312
aa(lp2313
Vgray
p2314
aV\u041e\u0442\u0440\u0430\u0434\u043d\u043e\u0435
p2315
aa(lp2316
Vorange
p2317
aV\u0411\u043e\u0442\u0430\u043d\u0438\u0447\u0435\u0441\u043a\u0438\u0439 \u0441\u0430\u0434
p2318
aa(lp2319
Vorange
p2320
aV\u0411\u043e\u0442\u0430\u043d\u0438\u0447\u0435\u0441\u043a\u0438\u0439 \u0441\u0430\u0434
p2321
aa(lp2322
Vgray
p2323
aV\u0412\u043b\u0430\u0434\u044b\u043a\u0438\u043d\u043e
p2324
aa(lp2325
Vgray
p2326
aV\u041e\u0442\u0440\u0430\u0434\u043d\u043e\u0435
p2327
aa(lp2328
Vgray
p2329
aV\u0411\u0438\u0431\u0438\u0440\u0435\u0432\u043e
p2330
aa(lp2331
Vgray
p2332
aV\u041e\u0442\u0440\u0430\u0434\u043d\u043e\u0435
p2333
aa(lp2334
Vgray
p2335
aV\u041e\u0442\u0440\u0430\u0434\u043d\u043e\u0435
p2336
aa(lp2337
Vorange
p2338
aV\u0411\u043e\u0442\u0430\u043d\u0438\u0447\u0435\u0441\u043a\u0438\u0439 \u0441\u0430\u0434
p2339
aa(lp2340
Vorange
p2341
aV\u0411\u043e\u0442\u0430\u043d\u0438\u0447\u0435\u0441\u043a\u0438\u0439 \u0441\u0430\u0434
p2342
aa(lp2343
Vgray
p2344
aV\u041e\u0442\u0440\u0430\u0434\u043d\u043e\u0435
p2345
aa(lp2346
Vgray
p2347
aV\u041e\u0442\u0440\u0430\u0434\u043d\u043e\u0435
p2348
aa(lp2349
Vgray
p2350
aV\u041e\u0442\u0440\u0430\u0434\u043d\u043e\u0435
p2351
aa(lp2352
Vgray
p2353
aV\u041e\u0442\u0440\u0430\u0434\u043d\u043e\u0435
p2354
aa(lp2355
Vgray
p2356
aV\u0410\u043b\u0442\u0443\u0444\u044c\u0435\u0432\u043e
p2357
aa(lp2358
Vgray
p2359
aV\u0410\u043b\u0442\u0443\u0444\u044c\u0435\u0432\u043e
p2360
aa(lp2361
Vgray
p2362
aV\u0410\u043b\u0442\u0443\u0444\u044c\u0435\u0432\u043e
p2363
aa(lp2364
Vgray
p2365
aV\u0410\u043b\u0442\u0443\u0444\u044c\u0435\u0432\u043e
p2366
aa(lp2367
Vgray
p2368
aV\u0410\u043b\u0442\u0443\u0444\u044c\u0435\u0432\u043e
p2369
aa(lp2370
Vgray
p2371
aV\u0410\u043b\u0442\u0443\u0444\u044c\u0435\u0432\u043e
p2372
aa(lp2373
Vgray
p2374
aV\u0410\u043b\u0442\u0443\u0444\u044c\u0435\u0432\u043e
p2375
aa(lp2376
Vgray
p2377
aV\u0410\u043b\u0442\u0443\u0444\u044c\u0435\u0432\u043e
p2378
aa(lp2379
Vgray
p2380
aV\u0411\u0438\u0431\u0438\u0440\u0435\u0432\u043e
p2381
aa(lp2382
Vgray
p2383
aV\u0411\u0438\u0431\u0438\u0440\u0435\u0432\u043e
p2384
aa(lp2385
Vgray
p2386
aV\u0411\u0438\u0431\u0438\u0440\u0435\u0432\u043e
p2387
aa(lp2388
Vgray
p2389
aV\u0411\u0438\u0431\u0438\u0440\u0435\u0432\u043e
p2390
aa(lp2391
Vgray
p2392
aV\u0411\u0438\u0431\u0438\u0440\u0435\u0432\u043e
p2393
aa(lp2394
g158
aV\u0412\u043b\u0430\u0434\u044b\u043a\u0438\u043d\u043e
p2395
aa(lp2396
g158
aV\u0411\u043e\u0442\u0430\u043d\u0438\u0447\u0435\u0441\u043a\u0438\u0439 \u0441\u0430\u0434
p2397
aa(lp2398
g158
aV\u0412\u043b\u0430\u0434\u044b\u043a\u0438\u043d\u043e
p2399
aa(lp2400
Vgray
p2401
aV\u0412\u043b\u0430\u0434\u044b\u043a\u0438\u043d\u043e
p2402
aa(lp2403
g158
aV\u041e\u043a\u0440\u0443\u0436\u043d\u0430\u044f
p2404
aa(lp2405
g158
aV\u0411\u043e\u0442\u0430\u043d\u0438\u0447\u0435\u0441\u043a\u0438\u0439 \u0441\u0430\u0434
p2406
aa(lp2407
g158
aV\u041e\u043a\u0440\u0443\u0436\u043d\u0430\u044f
p2408
aa(lp2409
Vorange
p2410
aV\u0411\u0430\u0431\u0443\u0448\u043a\u0438\u043d\u0441\u043a\u0430\u044f
p2411
aa(lp2412
Vorange
p2413
aV\u041c\u0435\u0434\u0432\u0435\u0434\u043a\u043e\u0432\u043e
p2414
aa(lp2415
Vorange
p2416
aV\u0421\u0432\u0438\u0431\u043b\u043e\u0432\u043e
p2417
aa(lp2418
Vorange
p2419
aV\u0421\u0432\u0438\u0431\u043b\u043e\u0432\u043e
p2420
aa(lp2421
Vorange
p2422
aV\u041c\u0435\u0434\u0432\u0435\u0434\u043a\u043e\u0432\u043e
p2423
aa(lp2424
Vorange
p2425
aV\u0411\u0430\u0431\u0443\u0448\u043a\u0438\u043d\u0441\u043a\u0430\u044f
p2426
aa(lp2427
Vorange
p2428
aV\u0411\u0430\u0431\u0443\u0448\u043a\u0438\u043d\u0441\u043a\u0430\u044f
p2429
aa(lp2430
Vorange
p2431
aV\u0411\u0430\u0431\u0443\u0448\u043a\u0438\u043d\u0441\u043a\u0430\u044f
p2432
aa(lp2433
Vorange
p2434
aV\u0411\u0430\u0431\u0443\u0448\u043a\u0438\u043d\u0441\u043a\u0430\u044f
p2435
aa(lp2436
Vorange
p2437
aV\u0421\u0432\u0438\u0431\u043b\u043e\u0432\u043e
p2438
aa(lp2439
Vorange
p2440
aV\u0411\u0430\u0431\u0443\u0448\u043a\u0438\u043d\u0441\u043a\u0430\u044f
p2441
aa(lp2442
Vorange
p2443
aV\u0421\u0432\u0438\u0431\u043b\u043e\u0432\u043e
p2444
aa(lp2445
Vorange
p2446
aV\u0421\u0432\u0438\u0431\u043b\u043e\u0432\u043e
p2447
aa.